ARM GAS  /tmp/ccOTcrxF.s 			page 1


   1              		.cpu cortex-m3
   2              		.arch armv7-m
   3              		.fpu softvfp
   4              		.eabi_attribute 20, 1
   5              		.eabi_attribute 21, 1
   6              		.eabi_attribute 23, 3
   7              		.eabi_attribute 24, 1
   8              		.eabi_attribute 25, 1
   9              		.eabi_attribute 26, 1
  10              		.eabi_attribute 30, 1
  11              		.eabi_attribute 34, 1
  12              		.eabi_attribute 18, 4
  13              		.file	"main.c"
  14              		.text
  15              	.Ltext0:
  16              		.cfi_sections	.debug_frame
  17              		.file 1 "Core/Src/main.c"
  18              		.global	__aeabi_ui2f
  19              		.global	__aeabi_fdiv
  20              		.global	__aeabi_i2f
  21              		.global	__aeabi_fadd
  22              		.global	__aeabi_f2d
  23              		.global	__aeabi_dmul
  24              		.global	__aeabi_ddiv
  25              		.global	__aeabi_d2f
  26              		.section	.text.get_motor_speed,"ax",%progbits
  27              		.align	1
  28              		.global	get_motor_speed
  29              		.syntax unified
  30              		.thumb
  31              		.thumb_func
  33              	get_motor_speed:
  34              	.LFB70:
   1:Core/Src/main.c **** /* USER CODE BEGIN Header */
   2:Core/Src/main.c **** /**
   3:Core/Src/main.c ****   ******************************************************************************
   4:Core/Src/main.c ****   * @file           : main.c
   5:Core/Src/main.c ****   * @brief          : Main program body
   6:Core/Src/main.c ****   ******************************************************************************
   7:Core/Src/main.c ****   * @attention
   8:Core/Src/main.c ****   *
   9:Core/Src/main.c ****   * Copyright (c) 2025 STMicroelectronics.
  10:Core/Src/main.c ****   * All rights reserved.
  11:Core/Src/main.c ****   *
  12:Core/Src/main.c ****   * This software is licensed under terms that can be found in the LICENSE file
  13:Core/Src/main.c ****   * in the root directory of this software component.
  14:Core/Src/main.c ****   * If no LICENSE file comes with this software, it is provided AS-IS.
  15:Core/Src/main.c ****   *
  16:Core/Src/main.c ****   ******************************************************************************
  17:Core/Src/main.c ****   */
  18:Core/Src/main.c **** /* USER CODE END Header */
  19:Core/Src/main.c **** /* Includes ------------------------------------------------------------------*/
  20:Core/Src/main.c **** #include "main.h"
  21:Core/Src/main.c **** #include "dma.h"
  22:Core/Src/main.c **** #include "tim.h"
  23:Core/Src/main.c **** #include "usart.h"
  24:Core/Src/main.c **** #include "gpio.h"
ARM GAS  /tmp/ccOTcrxF.s 			page 2


  25:Core/Src/main.c **** 
  26:Core/Src/main.c **** /* Private includes ----------------------------------------------------------*/
  27:Core/Src/main.c **** /* USER CODE BEGIN Includes */
  28:Core/Src/main.c **** #include <math.h>
  29:Core/Src/main.c **** #include <stdio.h>
  30:Core/Src/main.c **** #include <string.h> 
  31:Core/Src/main.c **** #include <mpu_6050.h>
  32:Core/Src/main.c **** /* USER CODE END Includes */
  33:Core/Src/main.c **** 
  34:Core/Src/main.c **** /* Private typedef -----------------------------------------------------------*/
  35:Core/Src/main.c **** /* USER CODE BEGIN PTD */
  36:Core/Src/main.c **** 
  37:Core/Src/main.c **** /* USER CODE END PTD */
  38:Core/Src/main.c **** 
  39:Core/Src/main.c **** /* Private define ------------------------------------------------------------*/
  40:Core/Src/main.c **** /* USER CODE BEGIN PD */
  41:Core/Src/main.c **** 
  42:Core/Src/main.c **** /* USER CODE END PD */
  43:Core/Src/main.c **** 
  44:Core/Src/main.c **** /* Private macro -------------------------------------------------------------*/
  45:Core/Src/main.c **** /* USER CODE BEGIN PM */
  46:Core/Src/main.c **** 
  47:Core/Src/main.c **** /* USER CODE END PM */
  48:Core/Src/main.c **** 
  49:Core/Src/main.c **** /* Private variables ---------------------------------------------------------*/
  50:Core/Src/main.c **** 
  51:Core/Src/main.c **** /* USER CODE BEGIN PV */
  52:Core/Src/main.c **** 
  53:Core/Src/main.c **** /* USER CODE END PV */
  54:Core/Src/main.c **** 
  55:Core/Src/main.c **** /* Private function prototypes -----------------------------------------------*/
  56:Core/Src/main.c **** void SystemClock_Config(void);
  57:Core/Src/main.c **** /* USER CODE BEGIN PFP */
  58:Core/Src/main.c **** 
  59:Core/Src/main.c **** /* USER CODE END PFP */
  60:Core/Src/main.c **** 
  61:Core/Src/main.c **** /* Private user code ---------------------------------------------------------*/
  62:Core/Src/main.c **** /* USER CODE BEGIN 0 */
  63:Core/Src/main.c **** uint32_t encoder = 0 ; 
  64:Core/Src/main.c **** #ifndef M_PI
  65:Core/Src/main.c **** #define M_PI 3.14159265358979323846
  66:Core/Src/main.c **** #endif
  67:Core/Src/main.c **** #define ENCODER_CPR 400
  68:Core/Src/main.c **** float get_motor_speed(void);
  69:Core/Src/main.c **** /* USER CODE END 0 */
  70:Core/Src/main.c **** 
  71:Core/Src/main.c **** /**
  72:Core/Src/main.c ****   * @brief  The application entry point.
  73:Core/Src/main.c ****   * @retval int
  74:Core/Src/main.c ****   */
  75:Core/Src/main.c **** int main(void)
  76:Core/Src/main.c **** {
  77:Core/Src/main.c **** 
  78:Core/Src/main.c ****   /* USER CODE BEGIN 1 */
  79:Core/Src/main.c ****   // setup();
  80:Core/Src/main.c ****   /* USER CODE END 1 */
  81:Core/Src/main.c **** 
ARM GAS  /tmp/ccOTcrxF.s 			page 3


  82:Core/Src/main.c ****   /* MCU Configuration--------------------------------------------------------*/
  83:Core/Src/main.c **** 
  84:Core/Src/main.c ****   /* Reset of all peripherals, Initializes the Flash interface and the Systick. */
  85:Core/Src/main.c ****   HAL_Init();
  86:Core/Src/main.c **** 
  87:Core/Src/main.c ****   /* USER CODE BEGIN Init */
  88:Core/Src/main.c **** 
  89:Core/Src/main.c ****   /* USER CODE END Init */
  90:Core/Src/main.c **** 
  91:Core/Src/main.c ****   /* Configure the system clock */
  92:Core/Src/main.c ****   SystemClock_Config();
  93:Core/Src/main.c **** 
  94:Core/Src/main.c ****   /* USER CODE BEGIN SysInit */
  95:Core/Src/main.c **** 
  96:Core/Src/main.c ****   /* USER CODE END SysInit */
  97:Core/Src/main.c **** 
  98:Core/Src/main.c ****   /* Initialize all configured peripherals */
  99:Core/Src/main.c ****   MX_GPIO_Init();
 100:Core/Src/main.c ****   MX_DMA_Init();
 101:Core/Src/main.c ****   MX_USART2_UART_Init();
 102:Core/Src/main.c ****   MX_USART1_UART_Init();
 103:Core/Src/main.c ****   MX_TIM3_Init();
 104:Core/Src/main.c ****   MX_TIM4_Init();
 105:Core/Src/main.c ****   /* USER CODE BEGIN 2 */
 106:Core/Src/main.c ****   HAL_TIM_Encoder_Start(&htim4, TIM_CHANNEL_ALL);
 107:Core/Src/main.c ****   MPU6050_Init();
 108:Core/Src/main.c ****   /* USER CODE END 2 */
 109:Core/Src/main.c **** 
 110:Core/Src/main.c ****   /* Infinite loop */
 111:Core/Src/main.c ****   /* USER CODE BEGIN WHILE */
 112:Core/Src/main.c ****   // char buf[32];
 113:Core/Src/main.c ****   char buffer[100];
 114:Core/Src/main.c ****   float accel[3], gyro[3]; 
 115:Core/Src/main.c ****   while (1)
 116:Core/Src/main.c ****   {
 117:Core/Src/main.c ****       // HAL_UART_Transmit(&huart2, (uint8_t *)msg, sizeof(msg), 1000);
 118:Core/Src/main.c ****       encoder = __HAL_TIM_GET_COUNTER(&htim4);    
 119:Core/Src/main.c ****       // int len = sprintf(buf, "Received Value: %lu\r\n", encoder); 
 120:Core/Src/main.c ****       // HAL_UART_Transmit(&huart1, (uint8_t *)buf, len, 1000);
 121:Core/Src/main.c **** 
 122:Core/Src/main.c ****       MPU6050_ReadData(accel, gyro);
 123:Core/Src/main.c **** 
 124:Core/Src/main.c ****       // sprintf(buffer, "AX:%f AY:%f AZ:%f GX:%f GY:%f GZ:%f\r\n",
 125:Core/Src/main.c ****       //           accel[0], accel[1], accel[2],
 126:Core/Src/main.c ****       //           gyro[0], gyro[1], gyro[2]);
 127:Core/Src/main.c ****       
 128:Core/Src/main.c ****       uint8_t id = MPU6050_ReadByte(0x75);
 129:Core/Src/main.c ****       sprintf(buffer, "WHO_AM_I = 0x%02X\r\n", id);
 130:Core/Src/main.c ****       HAL_UART_Transmit(&huart1, (uint8_t*)buffer, strlen(buffer), HAL_MAX_DELAY);
 131:Core/Src/main.c ****       float gx_rad = gyro[0] * (M_PI / 180.0f);
 132:Core/Src/main.c ****       float theta = atan2(accel[1],accel[2]) * 180.0f / M_PI ;
 133:Core/Src/main.c ****       float phi = encoder * 2.0f * M_PI/ENCODER_CPR;
 134:Core/Src/main.c ****       float phi_dot = get_motor_speed();
 135:Core/Src/main.c ****       sprintf(buffer, "AX:%d AY:%d AZ:%d GX:%d GY:%d GZ:%d theta : %f thetadot: %f phi : %f phi_dot
 136:Core/Src/main.c ****             (int)(accel[0]*1000), (int)(accel[1]*1000), (int)(accel[2]*1000),
 137:Core/Src/main.c ****             (int)(gyro[0]*100), (int)(gyro[1]*100), (int)(gyro[2]*100), theta, gx_rad, phi, phi_dot
 138:Core/Src/main.c ****       HAL_UART_Transmit(&huart1, (uint8_t*)buffer, strlen(buffer), HAL_MAX_DELAY);
ARM GAS  /tmp/ccOTcrxF.s 			page 4


 139:Core/Src/main.c ****       HAL_Delay(10);  
 140:Core/Src/main.c ****       // encoder = __HAL_TIM_GET_COUNTER(&htim2);
 141:Core/Src/main.c **** 
 142:Core/Src/main.c ****     /* USER CODE END WHILE */
 143:Core/Src/main.c **** 
 144:Core/Src/main.c ****     /* USER CODE BEGIN 3 */
 145:Core/Src/main.c ****   }
 146:Core/Src/main.c ****   /* USER CODE END 3 */
 147:Core/Src/main.c **** }
 148:Core/Src/main.c **** 
 149:Core/Src/main.c **** /**
 150:Core/Src/main.c ****   * @brief System Clock Configuration
 151:Core/Src/main.c ****   * @retval None
 152:Core/Src/main.c ****   */
 153:Core/Src/main.c **** void SystemClock_Config(void)
 154:Core/Src/main.c **** {
 155:Core/Src/main.c ****   RCC_OscInitTypeDef RCC_OscInitStruct = {0};
 156:Core/Src/main.c ****   RCC_ClkInitTypeDef RCC_ClkInitStruct = {0};
 157:Core/Src/main.c **** 
 158:Core/Src/main.c ****   /** Initializes the RCC Oscillators according to the specified parameters
 159:Core/Src/main.c ****   * in the RCC_OscInitTypeDef structure.
 160:Core/Src/main.c ****   */
 161:Core/Src/main.c ****   RCC_OscInitStruct.OscillatorType = RCC_OSCILLATORTYPE_HSE;
 162:Core/Src/main.c ****   RCC_OscInitStruct.HSEState = RCC_HSE_ON;
 163:Core/Src/main.c ****   RCC_OscInitStruct.HSEPredivValue = RCC_HSE_PREDIV_DIV1;
 164:Core/Src/main.c ****   RCC_OscInitStruct.HSIState = RCC_HSI_ON;
 165:Core/Src/main.c ****   RCC_OscInitStruct.PLL.PLLState = RCC_PLL_ON;
 166:Core/Src/main.c ****   RCC_OscInitStruct.PLL.PLLSource = RCC_PLLSOURCE_HSE;
 167:Core/Src/main.c ****   RCC_OscInitStruct.PLL.PLLMUL = RCC_PLL_MUL9;
 168:Core/Src/main.c ****   if (HAL_RCC_OscConfig(&RCC_OscInitStruct) != HAL_OK)
 169:Core/Src/main.c ****   {
 170:Core/Src/main.c ****     Error_Handler();
 171:Core/Src/main.c ****   }
 172:Core/Src/main.c **** 
 173:Core/Src/main.c ****   /** Initializes the CPU, AHB and APB buses clocks
 174:Core/Src/main.c ****   */
 175:Core/Src/main.c ****   RCC_ClkInitStruct.ClockType = RCC_CLOCKTYPE_HCLK|RCC_CLOCKTYPE_SYSCLK
 176:Core/Src/main.c ****                               |RCC_CLOCKTYPE_PCLK1|RCC_CLOCKTYPE_PCLK2;
 177:Core/Src/main.c ****   RCC_ClkInitStruct.SYSCLKSource = RCC_SYSCLKSOURCE_PLLCLK;
 178:Core/Src/main.c ****   RCC_ClkInitStruct.AHBCLKDivider = RCC_SYSCLK_DIV1;
 179:Core/Src/main.c ****   RCC_ClkInitStruct.APB1CLKDivider = RCC_HCLK_DIV2;
 180:Core/Src/main.c ****   RCC_ClkInitStruct.APB2CLKDivider = RCC_HCLK_DIV1;
 181:Core/Src/main.c **** 
 182:Core/Src/main.c ****   if (HAL_RCC_ClockConfig(&RCC_ClkInitStruct, FLASH_LATENCY_2) != HAL_OK)
 183:Core/Src/main.c ****   {
 184:Core/Src/main.c ****     Error_Handler();
 185:Core/Src/main.c ****   }
 186:Core/Src/main.c **** }
 187:Core/Src/main.c **** 
 188:Core/Src/main.c **** /* USER CODE BEGIN 4 */
 189:Core/Src/main.c **** float get_motor_speed() {
  35              		.loc 1 189 25 view -0
  36              		.cfi_startproc
  37              		@ args = 0, pretend = 0, frame = 0
  38              		@ frame_needed = 0, uses_anonymous_args = 0
  39 0000 F8B5     		push	{r3, r4, r5, r6, r7, lr}
  40              	.LCFI0:
ARM GAS  /tmp/ccOTcrxF.s 			page 5


  41              		.cfi_def_cfa_offset 24
  42              		.cfi_offset 3, -24
  43              		.cfi_offset 4, -20
  44              		.cfi_offset 5, -16
  45              		.cfi_offset 6, -12
  46              		.cfi_offset 7, -8
  47              		.cfi_offset 14, -4
 190:Core/Src/main.c ****     static int32_t prev_count = 0;
  48              		.loc 1 190 5 view .LVU1
 191:Core/Src/main.c ****     static uint32_t prev_time = 0;   
  49              		.loc 1 191 5 view .LVU2
 192:Core/Src/main.c ****     int32_t count = __HAL_TIM_GET_COUNTER(&htim4);
  50              		.loc 1 192 5 view .LVU3
  51              		.loc 1 192 21 is_stmt 0 view .LVU4
  52 0002 1B4B     		ldr	r3, .L3+8
  53 0004 1B68     		ldr	r3, [r3]
  54 0006 5A6A     		ldr	r2, [r3, #36]
  55              	.LVL0:
 193:Core/Src/main.c ****     int32_t delta = count - prev_count;
  56              		.loc 1 193 5 is_stmt 1 view .LVU5
  57              		.loc 1 193 27 is_stmt 0 view .LVU6
  58 0008 1A4B     		ldr	r3, .L3+12
  59 000a 1D68     		ldr	r5, [r3]
  60              		.loc 1 193 13 view .LVU7
  61 000c 551B     		subs	r5, r2, r5
  62              	.LVL1:
 194:Core/Src/main.c ****     prev_count = count;
  63              		.loc 1 194 5 is_stmt 1 view .LVU8
  64              		.loc 1 194 16 is_stmt 0 view .LVU9
  65 000e 1A60     		str	r2, [r3]
 195:Core/Src/main.c **** 
 196:Core/Src/main.c ****     uint32_t now_time = HAL_GetTick(); 
  66              		.loc 1 196 5 is_stmt 1 view .LVU10
  67              		.loc 1 196 25 is_stmt 0 view .LVU11
  68 0010 FFF7FEFF 		bl	HAL_GetTick
  69              	.LVL2:
  70              		.loc 1 196 25 view .LVU12
  71 0014 0446     		mov	r4, r0
  72              	.LVL3:
 197:Core/Src/main.c ****     float dt = (now_time - prev_time) / 1000.0f;  
  73              		.loc 1 197 5 is_stmt 1 view .LVU13
  74              		.loc 1 197 26 is_stmt 0 view .LVU14
  75 0016 184F     		ldr	r7, .L3+16
  76 0018 3868     		ldr	r0, [r7]
  77              	.LVL4:
  78              		.loc 1 197 39 view .LVU15
  79 001a 201A     		subs	r0, r4, r0
  80 001c FFF7FEFF 		bl	__aeabi_ui2f
  81              	.LVL5:
  82              		.loc 1 197 11 view .LVU16
  83 0020 1649     		ldr	r1, .L3+20
  84 0022 FFF7FEFF 		bl	__aeabi_fdiv
  85              	.LVL6:
  86 0026 0646     		mov	r6, r0
  87              	.LVL7:
 198:Core/Src/main.c ****     prev_time = now_time;
  88              		.loc 1 198 5 is_stmt 1 view .LVU17
ARM GAS  /tmp/ccOTcrxF.s 			page 6


  89              		.loc 1 198 15 is_stmt 0 view .LVU18
  90 0028 3C60     		str	r4, [r7]
 199:Core/Src/main.c **** 
 200:Core/Src/main.c ****     return ((float)delta / ENCODER_CPR) * 2.0f * M_PI / dt; // rad/s
  91              		.loc 1 200 5 is_stmt 1 view .LVU19
  92              		.loc 1 200 13 is_stmt 0 view .LVU20
  93 002a 2846     		mov	r0, r5
  94              	.LVL8:
  95              		.loc 1 200 13 view .LVU21
  96 002c FFF7FEFF 		bl	__aeabi_i2f
  97              	.LVL9:
  98              		.loc 1 200 26 view .LVU22
  99 0030 1349     		ldr	r1, .L3+24
 100 0032 FFF7FEFF 		bl	__aeabi_fdiv
 101              	.LVL10:
 102 0036 0146     		mov	r1, r0
 103              		.loc 1 200 41 view .LVU23
 104 0038 FFF7FEFF 		bl	__aeabi_fadd
 105              	.LVL11:
 106 003c FFF7FEFF 		bl	__aeabi_f2d
 107              	.LVL12:
 108              		.loc 1 200 48 view .LVU24
 109 0040 09A3     		adr	r3, .L3
 110 0042 D3E90023 		ldrd	r2, [r3]
 111 0046 FFF7FEFF 		bl	__aeabi_dmul
 112              	.LVL13:
 113 004a 0446     		mov	r4, r0
 114              	.LVL14:
 115              		.loc 1 200 48 view .LVU25
 116 004c 0D46     		mov	r5, r1
 117              	.LVL15:
 118              		.loc 1 200 55 view .LVU26
 119 004e 3046     		mov	r0, r6
 120 0050 FFF7FEFF 		bl	__aeabi_f2d
 121              	.LVL16:
 122 0054 0246     		mov	r2, r0
 123 0056 0B46     		mov	r3, r1
 124 0058 2046     		mov	r0, r4
 125 005a 2946     		mov	r1, r5
 126 005c FFF7FEFF 		bl	__aeabi_ddiv
 127              	.LVL17:
 128 0060 FFF7FEFF 		bl	__aeabi_d2f
 129              	.LVL18:
 201:Core/Src/main.c **** }
 130              		.loc 1 201 1 view .LVU27
 131 0064 F8BD     		pop	{r3, r4, r5, r6, r7, pc}
 132              	.LVL19:
 133              	.L4:
 134              		.loc 1 201 1 view .LVU28
 135 0066 00BF     		.align	3
 136              	.L3:
 137 0068 182D4454 		.word	1413754136
 138 006c FB210940 		.word	1074340347
 139 0070 00000000 		.word	htim4
 140 0074 00000000 		.word	prev_count.1
 141 0078 00000000 		.word	prev_time.0
 142 007c 00007A44 		.word	1148846080
ARM GAS  /tmp/ccOTcrxF.s 			page 7


 143 0080 0000C843 		.word	1137180672
 144              		.cfi_endproc
 145              	.LFE70:
 147              		.section	.text.Error_Handler,"ax",%progbits
 148              		.align	1
 149              		.global	Error_Handler
 150              		.syntax unified
 151              		.thumb
 152              		.thumb_func
 154              	Error_Handler:
 155              	.LFB71:
 202:Core/Src/main.c **** /* USER CODE END 4 */
 203:Core/Src/main.c **** 
 204:Core/Src/main.c **** /**
 205:Core/Src/main.c ****   * @brief  This function is executed in case of error occurrence.
 206:Core/Src/main.c ****   * @retval None
 207:Core/Src/main.c ****   */
 208:Core/Src/main.c **** void Error_Handler(void)
 209:Core/Src/main.c **** {
 156              		.loc 1 209 1 is_stmt 1 view -0
 157              		.cfi_startproc
 158              		@ Volatile: function does not return.
 159              		@ args = 0, pretend = 0, frame = 0
 160              		@ frame_needed = 0, uses_anonymous_args = 0
 161              		@ link register save eliminated.
 210:Core/Src/main.c ****   /* USER CODE BEGIN Error_Handler_Debug */
 211:Core/Src/main.c ****   /* User can add his own implementation to report the HAL error return state */
 212:Core/Src/main.c ****   __disable_irq();
 162              		.loc 1 212 3 view .LVU30
 163              	.LBB4:
 164              	.LBI4:
 165              		.file 2 "Drivers/CMSIS/Include/cmsis_gcc.h"
   1:Drivers/CMSIS/Include/cmsis_gcc.h **** /**************************************************************************//**
   2:Drivers/CMSIS/Include/cmsis_gcc.h ****  * @file     cmsis_gcc.h
   3:Drivers/CMSIS/Include/cmsis_gcc.h ****  * @brief    CMSIS compiler GCC header file
   4:Drivers/CMSIS/Include/cmsis_gcc.h ****  * @version  V5.0.4
   5:Drivers/CMSIS/Include/cmsis_gcc.h ****  * @date     09. April 2018
   6:Drivers/CMSIS/Include/cmsis_gcc.h ****  ******************************************************************************/
   7:Drivers/CMSIS/Include/cmsis_gcc.h **** /*
   8:Drivers/CMSIS/Include/cmsis_gcc.h ****  * Copyright (c) 2009-2018 Arm Limited. All rights reserved.
   9:Drivers/CMSIS/Include/cmsis_gcc.h ****  *
  10:Drivers/CMSIS/Include/cmsis_gcc.h ****  * SPDX-License-Identifier: Apache-2.0
  11:Drivers/CMSIS/Include/cmsis_gcc.h ****  *
  12:Drivers/CMSIS/Include/cmsis_gcc.h ****  * Licensed under the Apache License, Version 2.0 (the License); you may
  13:Drivers/CMSIS/Include/cmsis_gcc.h ****  * not use this file except in compliance with the License.
  14:Drivers/CMSIS/Include/cmsis_gcc.h ****  * You may obtain a copy of the License at
  15:Drivers/CMSIS/Include/cmsis_gcc.h ****  *
  16:Drivers/CMSIS/Include/cmsis_gcc.h ****  * www.apache.org/licenses/LICENSE-2.0
  17:Drivers/CMSIS/Include/cmsis_gcc.h ****  *
  18:Drivers/CMSIS/Include/cmsis_gcc.h ****  * Unless required by applicable law or agreed to in writing, software
  19:Drivers/CMSIS/Include/cmsis_gcc.h ****  * distributed under the License is distributed on an AS IS BASIS, WITHOUT
  20:Drivers/CMSIS/Include/cmsis_gcc.h ****  * WARRANTIES OR CONDITIONS OF ANY KIND, either express or implied.
  21:Drivers/CMSIS/Include/cmsis_gcc.h ****  * See the License for the specific language governing permissions and
  22:Drivers/CMSIS/Include/cmsis_gcc.h ****  * limitations under the License.
  23:Drivers/CMSIS/Include/cmsis_gcc.h ****  */
  24:Drivers/CMSIS/Include/cmsis_gcc.h **** 
  25:Drivers/CMSIS/Include/cmsis_gcc.h **** #ifndef __CMSIS_GCC_H
ARM GAS  /tmp/ccOTcrxF.s 			page 8


  26:Drivers/CMSIS/Include/cmsis_gcc.h **** #define __CMSIS_GCC_H
  27:Drivers/CMSIS/Include/cmsis_gcc.h **** 
  28:Drivers/CMSIS/Include/cmsis_gcc.h **** /* ignore some GCC warnings */
  29:Drivers/CMSIS/Include/cmsis_gcc.h **** #pragma GCC diagnostic push
  30:Drivers/CMSIS/Include/cmsis_gcc.h **** #pragma GCC diagnostic ignored "-Wsign-conversion"
  31:Drivers/CMSIS/Include/cmsis_gcc.h **** #pragma GCC diagnostic ignored "-Wconversion"
  32:Drivers/CMSIS/Include/cmsis_gcc.h **** #pragma GCC diagnostic ignored "-Wunused-parameter"
  33:Drivers/CMSIS/Include/cmsis_gcc.h **** 
  34:Drivers/CMSIS/Include/cmsis_gcc.h **** /* Fallback for __has_builtin */
  35:Drivers/CMSIS/Include/cmsis_gcc.h **** #ifndef __has_builtin
  36:Drivers/CMSIS/Include/cmsis_gcc.h ****   #define __has_builtin(x) (0)
  37:Drivers/CMSIS/Include/cmsis_gcc.h **** #endif
  38:Drivers/CMSIS/Include/cmsis_gcc.h **** 
  39:Drivers/CMSIS/Include/cmsis_gcc.h **** /* CMSIS compiler specific defines */
  40:Drivers/CMSIS/Include/cmsis_gcc.h **** #ifndef   __ASM
  41:Drivers/CMSIS/Include/cmsis_gcc.h ****   #define __ASM                                  __asm
  42:Drivers/CMSIS/Include/cmsis_gcc.h **** #endif
  43:Drivers/CMSIS/Include/cmsis_gcc.h **** #ifndef   __INLINE
  44:Drivers/CMSIS/Include/cmsis_gcc.h ****   #define __INLINE                               inline
  45:Drivers/CMSIS/Include/cmsis_gcc.h **** #endif
  46:Drivers/CMSIS/Include/cmsis_gcc.h **** #ifndef   __STATIC_INLINE
  47:Drivers/CMSIS/Include/cmsis_gcc.h ****   #define __STATIC_INLINE                        static inline
  48:Drivers/CMSIS/Include/cmsis_gcc.h **** #endif
  49:Drivers/CMSIS/Include/cmsis_gcc.h **** #ifndef   __STATIC_FORCEINLINE                 
  50:Drivers/CMSIS/Include/cmsis_gcc.h ****   #define __STATIC_FORCEINLINE                   __attribute__((always_inline)) static inline
  51:Drivers/CMSIS/Include/cmsis_gcc.h **** #endif                                           
  52:Drivers/CMSIS/Include/cmsis_gcc.h **** #ifndef   __NO_RETURN
  53:Drivers/CMSIS/Include/cmsis_gcc.h ****   #define __NO_RETURN                            __attribute__((__noreturn__))
  54:Drivers/CMSIS/Include/cmsis_gcc.h **** #endif
  55:Drivers/CMSIS/Include/cmsis_gcc.h **** #ifndef   __USED
  56:Drivers/CMSIS/Include/cmsis_gcc.h ****   #define __USED                                 __attribute__((used))
  57:Drivers/CMSIS/Include/cmsis_gcc.h **** #endif
  58:Drivers/CMSIS/Include/cmsis_gcc.h **** #ifndef   __WEAK
  59:Drivers/CMSIS/Include/cmsis_gcc.h ****   #define __WEAK                                 __attribute__((weak))
  60:Drivers/CMSIS/Include/cmsis_gcc.h **** #endif
  61:Drivers/CMSIS/Include/cmsis_gcc.h **** #ifndef   __PACKED
  62:Drivers/CMSIS/Include/cmsis_gcc.h ****   #define __PACKED                               __attribute__((packed, aligned(1)))
  63:Drivers/CMSIS/Include/cmsis_gcc.h **** #endif
  64:Drivers/CMSIS/Include/cmsis_gcc.h **** #ifndef   __PACKED_STRUCT
  65:Drivers/CMSIS/Include/cmsis_gcc.h ****   #define __PACKED_STRUCT                        struct __attribute__((packed, aligned(1)))
  66:Drivers/CMSIS/Include/cmsis_gcc.h **** #endif
  67:Drivers/CMSIS/Include/cmsis_gcc.h **** #ifndef   __PACKED_UNION
  68:Drivers/CMSIS/Include/cmsis_gcc.h ****   #define __PACKED_UNION                         union __attribute__((packed, aligned(1)))
  69:Drivers/CMSIS/Include/cmsis_gcc.h **** #endif
  70:Drivers/CMSIS/Include/cmsis_gcc.h **** #ifndef   __UNALIGNED_UINT32        /* deprecated */
  71:Drivers/CMSIS/Include/cmsis_gcc.h ****   #pragma GCC diagnostic push
  72:Drivers/CMSIS/Include/cmsis_gcc.h ****   #pragma GCC diagnostic ignored "-Wpacked"
  73:Drivers/CMSIS/Include/cmsis_gcc.h ****   #pragma GCC diagnostic ignored "-Wattributes"
  74:Drivers/CMSIS/Include/cmsis_gcc.h ****   struct __attribute__((packed)) T_UINT32 { uint32_t v; };
  75:Drivers/CMSIS/Include/cmsis_gcc.h ****   #pragma GCC diagnostic pop
  76:Drivers/CMSIS/Include/cmsis_gcc.h ****   #define __UNALIGNED_UINT32(x)                  (((struct T_UINT32 *)(x))->v)
  77:Drivers/CMSIS/Include/cmsis_gcc.h **** #endif
  78:Drivers/CMSIS/Include/cmsis_gcc.h **** #ifndef   __UNALIGNED_UINT16_WRITE
  79:Drivers/CMSIS/Include/cmsis_gcc.h ****   #pragma GCC diagnostic push
  80:Drivers/CMSIS/Include/cmsis_gcc.h ****   #pragma GCC diagnostic ignored "-Wpacked"
  81:Drivers/CMSIS/Include/cmsis_gcc.h ****   #pragma GCC diagnostic ignored "-Wattributes"
  82:Drivers/CMSIS/Include/cmsis_gcc.h ****   __PACKED_STRUCT T_UINT16_WRITE { uint16_t v; };
ARM GAS  /tmp/ccOTcrxF.s 			page 9


  83:Drivers/CMSIS/Include/cmsis_gcc.h ****   #pragma GCC diagnostic pop
  84:Drivers/CMSIS/Include/cmsis_gcc.h ****   #define __UNALIGNED_UINT16_WRITE(addr, val)    (void)((((struct T_UINT16_WRITE *)(void *)(addr))-
  85:Drivers/CMSIS/Include/cmsis_gcc.h **** #endif
  86:Drivers/CMSIS/Include/cmsis_gcc.h **** #ifndef   __UNALIGNED_UINT16_READ
  87:Drivers/CMSIS/Include/cmsis_gcc.h ****   #pragma GCC diagnostic push
  88:Drivers/CMSIS/Include/cmsis_gcc.h ****   #pragma GCC diagnostic ignored "-Wpacked"
  89:Drivers/CMSIS/Include/cmsis_gcc.h ****   #pragma GCC diagnostic ignored "-Wattributes"
  90:Drivers/CMSIS/Include/cmsis_gcc.h ****   __PACKED_STRUCT T_UINT16_READ { uint16_t v; };
  91:Drivers/CMSIS/Include/cmsis_gcc.h ****   #pragma GCC diagnostic pop
  92:Drivers/CMSIS/Include/cmsis_gcc.h ****   #define __UNALIGNED_UINT16_READ(addr)          (((const struct T_UINT16_READ *)(const void *)(add
  93:Drivers/CMSIS/Include/cmsis_gcc.h **** #endif
  94:Drivers/CMSIS/Include/cmsis_gcc.h **** #ifndef   __UNALIGNED_UINT32_WRITE
  95:Drivers/CMSIS/Include/cmsis_gcc.h ****   #pragma GCC diagnostic push
  96:Drivers/CMSIS/Include/cmsis_gcc.h ****   #pragma GCC diagnostic ignored "-Wpacked"
  97:Drivers/CMSIS/Include/cmsis_gcc.h ****   #pragma GCC diagnostic ignored "-Wattributes"
  98:Drivers/CMSIS/Include/cmsis_gcc.h ****   __PACKED_STRUCT T_UINT32_WRITE { uint32_t v; };
  99:Drivers/CMSIS/Include/cmsis_gcc.h ****   #pragma GCC diagnostic pop
 100:Drivers/CMSIS/Include/cmsis_gcc.h ****   #define __UNALIGNED_UINT32_WRITE(addr, val)    (void)((((struct T_UINT32_WRITE *)(void *)(addr))-
 101:Drivers/CMSIS/Include/cmsis_gcc.h **** #endif
 102:Drivers/CMSIS/Include/cmsis_gcc.h **** #ifndef   __UNALIGNED_UINT32_READ
 103:Drivers/CMSIS/Include/cmsis_gcc.h ****   #pragma GCC diagnostic push
 104:Drivers/CMSIS/Include/cmsis_gcc.h ****   #pragma GCC diagnostic ignored "-Wpacked"
 105:Drivers/CMSIS/Include/cmsis_gcc.h ****   #pragma GCC diagnostic ignored "-Wattributes"
 106:Drivers/CMSIS/Include/cmsis_gcc.h ****   __PACKED_STRUCT T_UINT32_READ { uint32_t v; };
 107:Drivers/CMSIS/Include/cmsis_gcc.h ****   #pragma GCC diagnostic pop
 108:Drivers/CMSIS/Include/cmsis_gcc.h ****   #define __UNALIGNED_UINT32_READ(addr)          (((const struct T_UINT32_READ *)(const void *)(add
 109:Drivers/CMSIS/Include/cmsis_gcc.h **** #endif
 110:Drivers/CMSIS/Include/cmsis_gcc.h **** #ifndef   __ALIGNED
 111:Drivers/CMSIS/Include/cmsis_gcc.h ****   #define __ALIGNED(x)                           __attribute__((aligned(x)))
 112:Drivers/CMSIS/Include/cmsis_gcc.h **** #endif
 113:Drivers/CMSIS/Include/cmsis_gcc.h **** #ifndef   __RESTRICT
 114:Drivers/CMSIS/Include/cmsis_gcc.h ****   #define __RESTRICT                             __restrict
 115:Drivers/CMSIS/Include/cmsis_gcc.h **** #endif
 116:Drivers/CMSIS/Include/cmsis_gcc.h **** 
 117:Drivers/CMSIS/Include/cmsis_gcc.h **** 
 118:Drivers/CMSIS/Include/cmsis_gcc.h **** /* ###########################  Core Function Access  ########################### */
 119:Drivers/CMSIS/Include/cmsis_gcc.h **** /** \ingroup  CMSIS_Core_FunctionInterface
 120:Drivers/CMSIS/Include/cmsis_gcc.h ****     \defgroup CMSIS_Core_RegAccFunctions CMSIS Core Register Access Functions
 121:Drivers/CMSIS/Include/cmsis_gcc.h ****   @{
 122:Drivers/CMSIS/Include/cmsis_gcc.h ****  */
 123:Drivers/CMSIS/Include/cmsis_gcc.h **** 
 124:Drivers/CMSIS/Include/cmsis_gcc.h **** /**
 125:Drivers/CMSIS/Include/cmsis_gcc.h ****   \brief   Enable IRQ Interrupts
 126:Drivers/CMSIS/Include/cmsis_gcc.h ****   \details Enables IRQ interrupts by clearing the I-bit in the CPSR.
 127:Drivers/CMSIS/Include/cmsis_gcc.h ****            Can only be executed in Privileged modes.
 128:Drivers/CMSIS/Include/cmsis_gcc.h ****  */
 129:Drivers/CMSIS/Include/cmsis_gcc.h **** __STATIC_FORCEINLINE void __enable_irq(void)
 130:Drivers/CMSIS/Include/cmsis_gcc.h **** {
 131:Drivers/CMSIS/Include/cmsis_gcc.h ****   __ASM volatile ("cpsie i" : : : "memory");
 132:Drivers/CMSIS/Include/cmsis_gcc.h **** }
 133:Drivers/CMSIS/Include/cmsis_gcc.h **** 
 134:Drivers/CMSIS/Include/cmsis_gcc.h **** 
 135:Drivers/CMSIS/Include/cmsis_gcc.h **** /**
 136:Drivers/CMSIS/Include/cmsis_gcc.h ****   \brief   Disable IRQ Interrupts
 137:Drivers/CMSIS/Include/cmsis_gcc.h ****   \details Disables IRQ interrupts by setting the I-bit in the CPSR.
 138:Drivers/CMSIS/Include/cmsis_gcc.h ****            Can only be executed in Privileged modes.
 139:Drivers/CMSIS/Include/cmsis_gcc.h ****  */
ARM GAS  /tmp/ccOTcrxF.s 			page 10


 140:Drivers/CMSIS/Include/cmsis_gcc.h **** __STATIC_FORCEINLINE void __disable_irq(void)
 166              		.loc 2 140 27 view .LVU31
 167              	.LBB5:
 141:Drivers/CMSIS/Include/cmsis_gcc.h **** {
 142:Drivers/CMSIS/Include/cmsis_gcc.h ****   __ASM volatile ("cpsid i" : : : "memory");
 168              		.loc 2 142 3 view .LVU32
 169              		.syntax unified
 170              	@ 142 "Drivers/CMSIS/Include/cmsis_gcc.h" 1
 171 0000 72B6     		cpsid i
 172              	@ 0 "" 2
 173              		.thumb
 174              		.syntax unified
 175              	.L6:
 176              	.LBE5:
 177              	.LBE4:
 213:Core/Src/main.c ****   while (1)
 178              		.loc 1 213 3 view .LVU33
 214:Core/Src/main.c ****   {
 215:Core/Src/main.c ****   }
 179              		.loc 1 215 3 view .LVU34
 213:Core/Src/main.c ****   while (1)
 180              		.loc 1 213 9 view .LVU35
 181 0002 FEE7     		b	.L6
 182              		.cfi_endproc
 183              	.LFE71:
 185              		.section	.text.SystemClock_Config,"ax",%progbits
 186              		.align	1
 187              		.global	SystemClock_Config
 188              		.syntax unified
 189              		.thumb
 190              		.thumb_func
 192              	SystemClock_Config:
 193              	.LFB69:
 154:Core/Src/main.c ****   RCC_OscInitTypeDef RCC_OscInitStruct = {0};
 194              		.loc 1 154 1 view -0
 195              		.cfi_startproc
 196              		@ args = 0, pretend = 0, frame = 64
 197              		@ frame_needed = 0, uses_anonymous_args = 0
 198 0000 00B5     		push	{lr}
 199              	.LCFI1:
 200              		.cfi_def_cfa_offset 4
 201              		.cfi_offset 14, -4
 202 0002 91B0     		sub	sp, sp, #68
 203              	.LCFI2:
 204              		.cfi_def_cfa_offset 72
 155:Core/Src/main.c ****   RCC_ClkInitTypeDef RCC_ClkInitStruct = {0};
 205              		.loc 1 155 3 view .LVU37
 155:Core/Src/main.c ****   RCC_ClkInitTypeDef RCC_ClkInitStruct = {0};
 206              		.loc 1 155 22 is_stmt 0 view .LVU38
 207 0004 2822     		movs	r2, #40
 208 0006 0021     		movs	r1, #0
 209 0008 06A8     		add	r0, sp, #24
 210 000a FFF7FEFF 		bl	memset
 211              	.LVL20:
 156:Core/Src/main.c **** 
 212              		.loc 1 156 3 is_stmt 1 view .LVU39
 156:Core/Src/main.c **** 
ARM GAS  /tmp/ccOTcrxF.s 			page 11


 213              		.loc 1 156 22 is_stmt 0 view .LVU40
 214 000e 0023     		movs	r3, #0
 215 0010 0193     		str	r3, [sp, #4]
 216 0012 0293     		str	r3, [sp, #8]
 217 0014 0393     		str	r3, [sp, #12]
 218 0016 0493     		str	r3, [sp, #16]
 219 0018 0593     		str	r3, [sp, #20]
 161:Core/Src/main.c ****   RCC_OscInitStruct.HSEState = RCC_HSE_ON;
 220              		.loc 1 161 3 is_stmt 1 view .LVU41
 161:Core/Src/main.c ****   RCC_OscInitStruct.HSEState = RCC_HSE_ON;
 221              		.loc 1 161 36 is_stmt 0 view .LVU42
 222 001a 0122     		movs	r2, #1
 223 001c 0692     		str	r2, [sp, #24]
 162:Core/Src/main.c ****   RCC_OscInitStruct.HSEPredivValue = RCC_HSE_PREDIV_DIV1;
 224              		.loc 1 162 3 is_stmt 1 view .LVU43
 162:Core/Src/main.c ****   RCC_OscInitStruct.HSEPredivValue = RCC_HSE_PREDIV_DIV1;
 225              		.loc 1 162 30 is_stmt 0 view .LVU44
 226 001e 4FF48033 		mov	r3, #65536
 227 0022 0793     		str	r3, [sp, #28]
 163:Core/Src/main.c ****   RCC_OscInitStruct.HSIState = RCC_HSI_ON;
 228              		.loc 1 163 3 is_stmt 1 view .LVU45
 164:Core/Src/main.c ****   RCC_OscInitStruct.PLL.PLLState = RCC_PLL_ON;
 229              		.loc 1 164 3 view .LVU46
 164:Core/Src/main.c ****   RCC_OscInitStruct.PLL.PLLState = RCC_PLL_ON;
 230              		.loc 1 164 30 is_stmt 0 view .LVU47
 231 0024 0A92     		str	r2, [sp, #40]
 165:Core/Src/main.c ****   RCC_OscInitStruct.PLL.PLLSource = RCC_PLLSOURCE_HSE;
 232              		.loc 1 165 3 is_stmt 1 view .LVU48
 165:Core/Src/main.c ****   RCC_OscInitStruct.PLL.PLLSource = RCC_PLLSOURCE_HSE;
 233              		.loc 1 165 34 is_stmt 0 view .LVU49
 234 0026 0222     		movs	r2, #2
 235 0028 0D92     		str	r2, [sp, #52]
 166:Core/Src/main.c ****   RCC_OscInitStruct.PLL.PLLMUL = RCC_PLL_MUL9;
 236              		.loc 1 166 3 is_stmt 1 view .LVU50
 166:Core/Src/main.c ****   RCC_OscInitStruct.PLL.PLLMUL = RCC_PLL_MUL9;
 237              		.loc 1 166 35 is_stmt 0 view .LVU51
 238 002a 0E93     		str	r3, [sp, #56]
 167:Core/Src/main.c ****   if (HAL_RCC_OscConfig(&RCC_OscInitStruct) != HAL_OK)
 239              		.loc 1 167 3 is_stmt 1 view .LVU52
 167:Core/Src/main.c ****   if (HAL_RCC_OscConfig(&RCC_OscInitStruct) != HAL_OK)
 240              		.loc 1 167 32 is_stmt 0 view .LVU53
 241 002c 4FF4E013 		mov	r3, #1835008
 242 0030 0F93     		str	r3, [sp, #60]
 168:Core/Src/main.c ****   {
 243              		.loc 1 168 3 is_stmt 1 view .LVU54
 168:Core/Src/main.c ****   {
 244              		.loc 1 168 7 is_stmt 0 view .LVU55
 245 0032 06A8     		add	r0, sp, #24
 246 0034 FFF7FEFF 		bl	HAL_RCC_OscConfig
 247              	.LVL21:
 168:Core/Src/main.c ****   {
 248              		.loc 1 168 6 discriminator 1 view .LVU56
 249 0038 80B9     		cbnz	r0, .L11
 175:Core/Src/main.c ****                               |RCC_CLOCKTYPE_PCLK1|RCC_CLOCKTYPE_PCLK2;
 250              		.loc 1 175 3 is_stmt 1 view .LVU57
 175:Core/Src/main.c ****                               |RCC_CLOCKTYPE_PCLK1|RCC_CLOCKTYPE_PCLK2;
 251              		.loc 1 175 31 is_stmt 0 view .LVU58
ARM GAS  /tmp/ccOTcrxF.s 			page 12


 252 003a 0F23     		movs	r3, #15
 253 003c 0193     		str	r3, [sp, #4]
 177:Core/Src/main.c ****   RCC_ClkInitStruct.AHBCLKDivider = RCC_SYSCLK_DIV1;
 254              		.loc 1 177 3 is_stmt 1 view .LVU59
 177:Core/Src/main.c ****   RCC_ClkInitStruct.AHBCLKDivider = RCC_SYSCLK_DIV1;
 255              		.loc 1 177 34 is_stmt 0 view .LVU60
 256 003e 0221     		movs	r1, #2
 257 0040 0291     		str	r1, [sp, #8]
 178:Core/Src/main.c ****   RCC_ClkInitStruct.APB1CLKDivider = RCC_HCLK_DIV2;
 258              		.loc 1 178 3 is_stmt 1 view .LVU61
 178:Core/Src/main.c ****   RCC_ClkInitStruct.APB1CLKDivider = RCC_HCLK_DIV2;
 259              		.loc 1 178 35 is_stmt 0 view .LVU62
 260 0042 0023     		movs	r3, #0
 261 0044 0393     		str	r3, [sp, #12]
 179:Core/Src/main.c ****   RCC_ClkInitStruct.APB2CLKDivider = RCC_HCLK_DIV1;
 262              		.loc 1 179 3 is_stmt 1 view .LVU63
 179:Core/Src/main.c ****   RCC_ClkInitStruct.APB2CLKDivider = RCC_HCLK_DIV1;
 263              		.loc 1 179 36 is_stmt 0 view .LVU64
 264 0046 4FF48062 		mov	r2, #1024
 265 004a 0492     		str	r2, [sp, #16]
 180:Core/Src/main.c **** 
 266              		.loc 1 180 3 is_stmt 1 view .LVU65
 180:Core/Src/main.c **** 
 267              		.loc 1 180 36 is_stmt 0 view .LVU66
 268 004c 0593     		str	r3, [sp, #20]
 182:Core/Src/main.c ****   {
 269              		.loc 1 182 3 is_stmt 1 view .LVU67
 182:Core/Src/main.c ****   {
 270              		.loc 1 182 7 is_stmt 0 view .LVU68
 271 004e 01A8     		add	r0, sp, #4
 272 0050 FFF7FEFF 		bl	HAL_RCC_ClockConfig
 273              	.LVL22:
 182:Core/Src/main.c ****   {
 274              		.loc 1 182 6 discriminator 1 view .LVU69
 275 0054 20B9     		cbnz	r0, .L12
 186:Core/Src/main.c **** 
 276              		.loc 1 186 1 view .LVU70
 277 0056 11B0     		add	sp, sp, #68
 278              	.LCFI3:
 279              		.cfi_remember_state
 280              		.cfi_def_cfa_offset 4
 281              		@ sp needed
 282 0058 5DF804FB 		ldr	pc, [sp], #4
 283              	.L11:
 284              	.LCFI4:
 285              		.cfi_restore_state
 170:Core/Src/main.c ****   }
 286              		.loc 1 170 5 is_stmt 1 view .LVU71
 287 005c FFF7FEFF 		bl	Error_Handler
 288              	.LVL23:
 289              	.L12:
 184:Core/Src/main.c ****   }
 290              		.loc 1 184 5 view .LVU72
 291 0060 FFF7FEFF 		bl	Error_Handler
 292              	.LVL24:
 293              		.cfi_endproc
 294              	.LFE69:
ARM GAS  /tmp/ccOTcrxF.s 			page 13


 296              		.section	.rodata.main.str1.4,"aMS",%progbits,1
 297              		.align	2
 298              	.LC0:
 299 0000 57484F5F 		.ascii	"WHO_AM_I = 0x%02X\015\012\000"
 299      414D5F49 
 299      203D2030 
 299      78253032 
 299      580D0A00 
 300              		.global	__aeabi_fmul
 301              		.global	__aeabi_f2iz
 302              		.align	2
 303              	.LC1:
 304 0014 41583A25 		.ascii	"AX:%d AY:%d AZ:%d GX:%d GY:%d GZ:%d theta : %f thet"
 304      64204159 
 304      3A256420 
 304      415A3A25 
 304      64204758 
 305 0047 61646F74 		.ascii	"adot: %f phi : %f phi_dot : %f\015\012\000"
 305      3A202566 
 305      20706869 
 305      203A2025 
 305      66207068 
 306              		.section	.text.main,"ax",%progbits
 307              		.align	1
 308              		.global	main
 309              		.syntax unified
 310              		.thumb
 311              		.thumb_func
 313              	main:
 314              	.LFB68:
  76:Core/Src/main.c **** 
 315              		.loc 1 76 1 view -0
 316              		.cfi_startproc
 317              		@ args = 0, pretend = 0, frame = 144
 318              		@ frame_needed = 0, uses_anonymous_args = 0
 319 0000 2DE9F04F 		push	{r4, r5, r6, r7, r8, r9, r10, fp, lr}
 320              	.LCFI5:
 321              		.cfi_def_cfa_offset 36
 322              		.cfi_offset 4, -36
 323              		.cfi_offset 5, -32
 324              		.cfi_offset 6, -28
 325              		.cfi_offset 7, -24
 326              		.cfi_offset 8, -20
 327              		.cfi_offset 9, -16
 328              		.cfi_offset 10, -12
 329              		.cfi_offset 11, -8
 330              		.cfi_offset 14, -4
 331 0004 B1B0     		sub	sp, sp, #196
 332              	.LCFI6:
 333              		.cfi_def_cfa_offset 232
  85:Core/Src/main.c **** 
 334              		.loc 1 85 3 view .LVU74
 335 0006 FFF7FEFF 		bl	HAL_Init
 336              	.LVL25:
  92:Core/Src/main.c **** 
 337              		.loc 1 92 3 view .LVU75
 338 000a FFF7FEFF 		bl	SystemClock_Config
ARM GAS  /tmp/ccOTcrxF.s 			page 14


 339              	.LVL26:
  99:Core/Src/main.c ****   MX_DMA_Init();
 340              		.loc 1 99 3 view .LVU76
 341 000e FFF7FEFF 		bl	MX_GPIO_Init
 342              	.LVL27:
 100:Core/Src/main.c ****   MX_USART2_UART_Init();
 343              		.loc 1 100 3 view .LVU77
 344 0012 FFF7FEFF 		bl	MX_DMA_Init
 345              	.LVL28:
 101:Core/Src/main.c ****   MX_USART1_UART_Init();
 346              		.loc 1 101 3 view .LVU78
 347 0016 FFF7FEFF 		bl	MX_USART2_UART_Init
 348              	.LVL29:
 102:Core/Src/main.c ****   MX_TIM3_Init();
 349              		.loc 1 102 3 view .LVU79
 350 001a FFF7FEFF 		bl	MX_USART1_UART_Init
 351              	.LVL30:
 103:Core/Src/main.c ****   MX_TIM4_Init();
 352              		.loc 1 103 3 view .LVU80
 353 001e FFF7FEFF 		bl	MX_TIM3_Init
 354              	.LVL31:
 104:Core/Src/main.c ****   /* USER CODE BEGIN 2 */
 355              		.loc 1 104 3 view .LVU81
 356 0022 FFF7FEFF 		bl	MX_TIM4_Init
 357              	.LVL32:
 106:Core/Src/main.c ****   MPU6050_Init();
 358              		.loc 1 106 3 view .LVU82
 359 0026 3C21     		movs	r1, #60
 360 0028 6148     		ldr	r0, .L16+16
 361 002a FFF7FEFF 		bl	HAL_TIM_Encoder_Start
 362              	.LVL33:
 107:Core/Src/main.c ****   /* USER CODE END 2 */
 363              		.loc 1 107 3 view .LVU83
 364 002e FFF7FEFF 		bl	MPU6050_Init
 365              	.LVL34:
 366              	.L14:
 113:Core/Src/main.c ****   float accel[3], gyro[3]; 
 367              		.loc 1 113 3 view .LVU84
 114:Core/Src/main.c ****   while (1)
 368              		.loc 1 114 3 view .LVU85
 115:Core/Src/main.c ****   {
 369              		.loc 1 115 3 view .LVU86
 370              	.LBB6:
 118:Core/Src/main.c ****       // int len = sprintf(buf, "Received Value: %lu\r\n", encoder); 
 371              		.loc 1 118 7 view .LVU87
 118:Core/Src/main.c ****       // int len = sprintf(buf, "Received Value: %lu\r\n", encoder); 
 372              		.loc 1 118 17 is_stmt 0 view .LVU88
 373 0032 5F4B     		ldr	r3, .L16+16
 374 0034 1B68     		ldr	r3, [r3]
 375 0036 5B6A     		ldr	r3, [r3, #36]
 118:Core/Src/main.c ****       // int len = sprintf(buf, "Received Value: %lu\r\n", encoder); 
 376              		.loc 1 118 15 view .LVU89
 377 0038 5E4F     		ldr	r7, .L16+20
 378 003a 3B60     		str	r3, [r7]
 122:Core/Src/main.c **** 
 379              		.loc 1 122 7 is_stmt 1 view .LVU90
 380 003c 11A9     		add	r1, sp, #68
ARM GAS  /tmp/ccOTcrxF.s 			page 15


 381 003e 14A8     		add	r0, sp, #80
 382 0040 FFF7FEFF 		bl	MPU6050_ReadData
 383              	.LVL35:
 128:Core/Src/main.c ****       sprintf(buffer, "WHO_AM_I = 0x%02X\r\n", id);
 384              		.loc 1 128 7 view .LVU91
 128:Core/Src/main.c ****       sprintf(buffer, "WHO_AM_I = 0x%02X\r\n", id);
 385              		.loc 1 128 20 is_stmt 0 view .LVU92
 386 0044 7520     		movs	r0, #117
 387 0046 FFF7FEFF 		bl	MPU6050_ReadByte
 388              	.LVL36:
 389 004a 0246     		mov	r2, r0
 390              	.LVL37:
 129:Core/Src/main.c ****       HAL_UART_Transmit(&huart1, (uint8_t*)buffer, strlen(buffer), HAL_MAX_DELAY);
 391              		.loc 1 129 7 is_stmt 1 view .LVU93
 392 004c 5A49     		ldr	r1, .L16+24
 393 004e 17A8     		add	r0, sp, #92
 394 0050 FFF7FEFF 		bl	sprintf
 395              	.LVL38:
 130:Core/Src/main.c ****       float gx_rad = gyro[0] * (M_PI / 180.0f);
 396              		.loc 1 130 7 view .LVU94
 130:Core/Src/main.c ****       float gx_rad = gyro[0] * (M_PI / 180.0f);
 397              		.loc 1 130 52 is_stmt 0 view .LVU95
 398 0054 17A8     		add	r0, sp, #92
 399 0056 FFF7FEFF 		bl	strlen
 400              	.LVL39:
 130:Core/Src/main.c ****       float gx_rad = gyro[0] * (M_PI / 180.0f);
 401              		.loc 1 130 7 discriminator 1 view .LVU96
 402 005a DFF860B1 		ldr	fp, .L16+28
 403 005e 4FF0FF33 		mov	r3, #-1
 404 0062 82B2     		uxth	r2, r0
 405 0064 17A9     		add	r1, sp, #92
 406 0066 5846     		mov	r0, fp
 407 0068 FFF7FEFF 		bl	HAL_UART_Transmit
 408              	.LVL40:
 131:Core/Src/main.c ****       float theta = atan2(accel[1],accel[2]) * 180.0f / M_PI ;
 409              		.loc 1 131 7 is_stmt 1 view .LVU97
 131:Core/Src/main.c ****       float theta = atan2(accel[1],accel[2]) * 180.0f / M_PI ;
 410              		.loc 1 131 26 is_stmt 0 view .LVU98
 411 006c 1198     		ldr	r0, [sp, #68]	@ float
 412 006e FFF7FEFF 		bl	__aeabi_f2d
 413              	.LVL41:
 131:Core/Src/main.c ****       float theta = atan2(accel[1],accel[2]) * 180.0f / M_PI ;
 414              		.loc 1 131 30 view .LVU99
 415 0072 4BA3     		adr	r3, .L16
 416 0074 D3E90023 		ldrd	r2, [r3]
 417 0078 FFF7FEFF 		bl	__aeabi_dmul
 418              	.LVL42:
 131:Core/Src/main.c ****       float theta = atan2(accel[1],accel[2]) * 180.0f / M_PI ;
 419              		.loc 1 131 13 view .LVU100
 420 007c FFF7FEFF 		bl	__aeabi_d2f
 421              	.LVL43:
 422 0080 0646     		mov	r6, r0
 423              	.LVL44:
 132:Core/Src/main.c ****       float phi = encoder * 2.0f * M_PI/ENCODER_CPR;
 424              		.loc 1 132 7 is_stmt 1 view .LVU101
 132:Core/Src/main.c ****       float phi = encoder * 2.0f * M_PI/ENCODER_CPR;
 425              		.loc 1 132 21 is_stmt 0 view .LVU102
ARM GAS  /tmp/ccOTcrxF.s 			page 16


 426 0082 1698     		ldr	r0, [sp, #88]	@ float
 427              	.LVL45:
 132:Core/Src/main.c ****       float phi = encoder * 2.0f * M_PI/ENCODER_CPR;
 428              		.loc 1 132 21 view .LVU103
 429 0084 FFF7FEFF 		bl	__aeabi_f2d
 430              	.LVL46:
 431 0088 0446     		mov	r4, r0
 432 008a 0D46     		mov	r5, r1
 433 008c 1598     		ldr	r0, [sp, #84]	@ float
 434 008e FFF7FEFF 		bl	__aeabi_f2d
 435              	.LVL47:
 436 0092 2246     		mov	r2, r4
 437 0094 2B46     		mov	r3, r5
 438 0096 FFF7FEFF 		bl	atan2
 439              	.LVL48:
 132:Core/Src/main.c ****       float phi = encoder * 2.0f * M_PI/ENCODER_CPR;
 440              		.loc 1 132 46 discriminator 1 view .LVU104
 441 009a 0022     		movs	r2, #0
 442 009c 484B     		ldr	r3, .L16+32
 443 009e FFF7FEFF 		bl	__aeabi_dmul
 444              	.LVL49:
 132:Core/Src/main.c ****       float phi = encoder * 2.0f * M_PI/ENCODER_CPR;
 445              		.loc 1 132 55 discriminator 1 view .LVU105
 446 00a2 41A3     		adr	r3, .L16+8
 447 00a4 D3E90023 		ldrd	r2, [r3]
 448 00a8 FFF7FEFF 		bl	__aeabi_ddiv
 449              	.LVL50:
 132:Core/Src/main.c ****       float phi = encoder * 2.0f * M_PI/ENCODER_CPR;
 450              		.loc 1 132 13 discriminator 1 view .LVU106
 451 00ac FFF7FEFF 		bl	__aeabi_d2f
 452              	.LVL51:
 453 00b0 0546     		mov	r5, r0
 454              	.LVL52:
 133:Core/Src/main.c ****       float phi_dot = get_motor_speed();
 455              		.loc 1 133 7 is_stmt 1 view .LVU107
 133:Core/Src/main.c ****       float phi_dot = get_motor_speed();
 456              		.loc 1 133 27 is_stmt 0 view .LVU108
 457 00b2 3868     		ldr	r0, [r7]
 458              	.LVL53:
 133:Core/Src/main.c ****       float phi_dot = get_motor_speed();
 459              		.loc 1 133 27 view .LVU109
 460 00b4 FFF7FEFF 		bl	__aeabi_ui2f
 461              	.LVL54:
 462 00b8 0146     		mov	r1, r0
 463 00ba FFF7FEFF 		bl	__aeabi_fadd
 464              	.LVL55:
 465 00be FFF7FEFF 		bl	__aeabi_f2d
 466              	.LVL56:
 133:Core/Src/main.c ****       float phi_dot = get_motor_speed();
 467              		.loc 1 133 34 view .LVU110
 468 00c2 39A3     		adr	r3, .L16+8
 469 00c4 D3E90023 		ldrd	r2, [r3]
 470 00c8 FFF7FEFF 		bl	__aeabi_dmul
 471              	.LVL57:
 133:Core/Src/main.c ****       float phi_dot = get_motor_speed();
 472              		.loc 1 133 40 view .LVU111
 473 00cc 0022     		movs	r2, #0
ARM GAS  /tmp/ccOTcrxF.s 			page 17


 474 00ce 3D4B     		ldr	r3, .L16+36
 475 00d0 FFF7FEFF 		bl	__aeabi_ddiv
 476              	.LVL58:
 133:Core/Src/main.c ****       float phi_dot = get_motor_speed();
 477              		.loc 1 133 13 view .LVU112
 478 00d4 FFF7FEFF 		bl	__aeabi_d2f
 479              	.LVL59:
 480 00d8 0746     		mov	r7, r0
 481              	.LVL60:
 134:Core/Src/main.c ****       sprintf(buffer, "AX:%d AY:%d AZ:%d GX:%d GY:%d GZ:%d theta : %f thetadot: %f phi : %f phi_dot
 482              		.loc 1 134 7 is_stmt 1 view .LVU113
 134:Core/Src/main.c ****       sprintf(buffer, "AX:%d AY:%d AZ:%d GX:%d GY:%d GZ:%d theta : %f thetadot: %f phi : %f phi_dot
 483              		.loc 1 134 23 is_stmt 0 view .LVU114
 484 00da FFF7FEFF 		bl	get_motor_speed
 485              	.LVL61:
 134:Core/Src/main.c ****       sprintf(buffer, "AX:%d AY:%d AZ:%d GX:%d GY:%d GZ:%d theta : %f thetadot: %f phi : %f phi_dot
 486              		.loc 1 134 23 view .LVU115
 487 00de 8046     		mov	r8, r0
 488              	.LVL62:
 135:Core/Src/main.c ****             (int)(accel[0]*1000), (int)(accel[1]*1000), (int)(accel[2]*1000),
 489              		.loc 1 135 7 is_stmt 1 view .LVU116
 136:Core/Src/main.c ****             (int)(gyro[0]*100), (int)(gyro[1]*100), (int)(gyro[2]*100), theta, gx_rad, phi, phi_dot
 490              		.loc 1 136 27 is_stmt 0 view .LVU117
 491 00e0 3949     		ldr	r1, .L16+40
 492 00e2 1498     		ldr	r0, [sp, #80]	@ float
 493              	.LVL63:
 136:Core/Src/main.c ****             (int)(gyro[0]*100), (int)(gyro[1]*100), (int)(gyro[2]*100), theta, gx_rad, phi, phi_dot
 494              		.loc 1 136 27 view .LVU118
 495 00e4 FFF7FEFF 		bl	__aeabi_fmul
 496              	.LVL64:
 497 00e8 8146     		mov	r9, r0
 136:Core/Src/main.c ****             (int)(gyro[0]*100), (int)(gyro[1]*100), (int)(gyro[2]*100), theta, gx_rad, phi, phi_dot
 498              		.loc 1 136 49 view .LVU119
 499 00ea 3749     		ldr	r1, .L16+40
 500 00ec 1598     		ldr	r0, [sp, #84]	@ float
 501 00ee FFF7FEFF 		bl	__aeabi_fmul
 502              	.LVL65:
 503 00f2 8246     		mov	r10, r0
 136:Core/Src/main.c ****             (int)(gyro[0]*100), (int)(gyro[1]*100), (int)(gyro[2]*100), theta, gx_rad, phi, phi_dot
 504              		.loc 1 136 71 view .LVU120
 505 00f4 3449     		ldr	r1, .L16+40
 506 00f6 1698     		ldr	r0, [sp, #88]	@ float
 507 00f8 FFF7FEFF 		bl	__aeabi_fmul
 508              	.LVL66:
 509 00fc 0D90     		str	r0, [sp, #52]	@ float
 137:Core/Src/main.c ****       HAL_UART_Transmit(&huart1, (uint8_t*)buffer, strlen(buffer), HAL_MAX_DELAY);
 510              		.loc 1 137 26 view .LVU121
 511 00fe 3349     		ldr	r1, .L16+44
 512 0100 1198     		ldr	r0, [sp, #68]	@ float
 513 0102 FFF7FEFF 		bl	__aeabi_fmul
 514              	.LVL67:
 515 0106 0E90     		str	r0, [sp, #56]	@ float
 137:Core/Src/main.c ****       HAL_UART_Transmit(&huart1, (uint8_t*)buffer, strlen(buffer), HAL_MAX_DELAY);
 516              		.loc 1 137 46 view .LVU122
 517 0108 3049     		ldr	r1, .L16+44
 518 010a 1298     		ldr	r0, [sp, #72]	@ float
 519 010c FFF7FEFF 		bl	__aeabi_fmul
ARM GAS  /tmp/ccOTcrxF.s 			page 18


 520              	.LVL68:
 521 0110 0F90     		str	r0, [sp, #60]	@ float
 137:Core/Src/main.c ****       HAL_UART_Transmit(&huart1, (uint8_t*)buffer, strlen(buffer), HAL_MAX_DELAY);
 522              		.loc 1 137 66 view .LVU123
 523 0112 2E49     		ldr	r1, .L16+44
 524 0114 1398     		ldr	r0, [sp, #76]	@ float
 525 0116 FFF7FEFF 		bl	__aeabi_fmul
 526              	.LVL69:
 527 011a 0446     		mov	r4, r0
 135:Core/Src/main.c ****             (int)(accel[0]*1000), (int)(accel[1]*1000), (int)(accel[2]*1000),
 528              		.loc 1 135 7 view .LVU124
 529 011c 5046     		mov	r0, r10
 530 011e FFF7FEFF 		bl	__aeabi_f2iz
 531              	.LVL70:
 532 0122 8246     		mov	r10, r0
 533 0124 4846     		mov	r0, r9
 534 0126 FFF7FEFF 		bl	__aeabi_f2iz
 535              	.LVL71:
 536 012a 8146     		mov	r9, r0
 537 012c 4046     		mov	r0, r8
 538 012e FFF7FEFF 		bl	__aeabi_f2d
 539              	.LVL72:
 540 0132 CDE90A01 		strd	r0, [sp, #40]
 541 0136 3846     		mov	r0, r7
 542 0138 FFF7FEFF 		bl	__aeabi_f2d
 543              	.LVL73:
 544 013c CDE90801 		strd	r0, [sp, #32]
 545 0140 3046     		mov	r0, r6
 546 0142 FFF7FEFF 		bl	__aeabi_f2d
 547              	.LVL74:
 548 0146 CDE90601 		strd	r0, [sp, #24]
 549 014a 2846     		mov	r0, r5
 550 014c FFF7FEFF 		bl	__aeabi_f2d
 551              	.LVL75:
 552 0150 CDE90401 		strd	r0, [sp, #16]
 553 0154 2046     		mov	r0, r4
 554 0156 FFF7FEFF 		bl	__aeabi_f2iz
 555              	.LVL76:
 556 015a 0390     		str	r0, [sp, #12]
 557 015c 0F98     		ldr	r0, [sp, #60]	@ float
 558 015e FFF7FEFF 		bl	__aeabi_f2iz
 559              	.LVL77:
 560 0162 0290     		str	r0, [sp, #8]
 561 0164 0E98     		ldr	r0, [sp, #56]	@ float
 562 0166 FFF7FEFF 		bl	__aeabi_f2iz
 563              	.LVL78:
 564 016a 0190     		str	r0, [sp, #4]
 565 016c 0D98     		ldr	r0, [sp, #52]	@ float
 566 016e FFF7FEFF 		bl	__aeabi_f2iz
 567              	.LVL79:
 568 0172 0090     		str	r0, [sp]
 569 0174 5346     		mov	r3, r10
 570 0176 4A46     		mov	r2, r9
 571 0178 1549     		ldr	r1, .L16+48
 572 017a 17A8     		add	r0, sp, #92
 573 017c FFF7FEFF 		bl	sprintf
 574              	.LVL80:
ARM GAS  /tmp/ccOTcrxF.s 			page 19


 138:Core/Src/main.c ****       HAL_Delay(10);  
 575              		.loc 1 138 7 is_stmt 1 view .LVU125
 138:Core/Src/main.c ****       HAL_Delay(10);  
 576              		.loc 1 138 52 is_stmt 0 view .LVU126
 577 0180 17A8     		add	r0, sp, #92
 578 0182 FFF7FEFF 		bl	strlen
 579              	.LVL81:
 138:Core/Src/main.c ****       HAL_Delay(10);  
 580              		.loc 1 138 7 discriminator 1 view .LVU127
 581 0186 4FF0FF33 		mov	r3, #-1
 582 018a 82B2     		uxth	r2, r0
 583 018c 17A9     		add	r1, sp, #92
 584 018e 5846     		mov	r0, fp
 585 0190 FFF7FEFF 		bl	HAL_UART_Transmit
 586              	.LVL82:
 139:Core/Src/main.c ****       // encoder = __HAL_TIM_GET_COUNTER(&htim2);
 587              		.loc 1 139 7 is_stmt 1 discriminator 1 view .LVU128
 588 0194 0A20     		movs	r0, #10
 589 0196 FFF7FEFF 		bl	HAL_Delay
 590              	.LVL83:
 591              	.LBE6:
 115:Core/Src/main.c ****   {
 592              		.loc 1 115 9 view .LVU129
 593 019a 4AE7     		b	.L14
 594              	.L17:
 595 019c AFF30080 		.align	3
 596              	.L16:
 597 01a0 399D52A2 		.word	-1571644103
 598 01a4 46DF913F 		.word	1066524486
 599 01a8 182D4454 		.word	1413754136
 600 01ac FB210940 		.word	1074340347
 601 01b0 00000000 		.word	htim4
 602 01b4 00000000 		.word	encoder
 603 01b8 00000000 		.word	.LC0
 604 01bc 00000000 		.word	huart1
 605 01c0 00806640 		.word	1080459264
 606 01c4 00007940 		.word	1081671680
 607 01c8 00007A44 		.word	1148846080
 608 01cc 0000C842 		.word	1120403456
 609 01d0 14000000 		.word	.LC1
 610              		.cfi_endproc
 611              	.LFE68:
 613              		.section	.bss.prev_time.0,"aw",%nobits
 614              		.align	2
 617              	prev_time.0:
 618 0000 00000000 		.space	4
 619              		.section	.bss.prev_count.1,"aw",%nobits
 620              		.align	2
 623              	prev_count.1:
 624 0000 00000000 		.space	4
 625              		.global	encoder
 626              		.section	.bss.encoder,"aw",%nobits
 627              		.align	2
 630              	encoder:
 631 0000 00000000 		.space	4
 632              		.text
 633              	.Letext0:
ARM GAS  /tmp/ccOTcrxF.s 			page 20


 634              		.file 3 "/usr/lib/gcc/arm-none-eabi/13.2.1/include/stdint.h"
 635              		.file 4 "Drivers/CMSIS/Device/ST/STM32F1xx/Include/stm32f103xb.h"
 636              		.file 5 "/usr/lib/gcc/arm-none-eabi/13.2.1/include/stddef.h"
 637              		.file 6 "Drivers/STM32F1xx_HAL_Driver/Inc/stm32f1xx_hal_def.h"
 638              		.file 7 "Drivers/STM32F1xx_HAL_Driver/Inc/stm32f1xx_hal_rcc.h"
 639              		.file 8 "Drivers/STM32F1xx_HAL_Driver/Inc/stm32f1xx_hal_rcc_ex.h"
 640              		.file 9 "Drivers/STM32F1xx_HAL_Driver/Inc/stm32f1xx_hal_dma.h"
 641              		.file 10 "Drivers/STM32F1xx_HAL_Driver/Inc/stm32f1xx_hal_tim.h"
 642              		.file 11 "Drivers/STM32F1xx_HAL_Driver/Inc/stm32f1xx_hal_uart.h"
 643              		.file 12 "Core/Inc/tim.h"
 644              		.file 13 "Core/Inc/usart.h"
 645              		.file 14 "/usr/include/newlib/math.h"
 646              		.file 15 "/usr/include/newlib/string.h"
 647              		.file 16 "/usr/include/newlib/stdio.h"
 648              		.file 17 "Core/Inc/mpu_6050.h"
 649              		.file 18 "Drivers/STM32F1xx_HAL_Driver/Inc/stm32f1xx_hal.h"
 650              		.file 19 "Core/Inc/dma.h"
 651              		.file 20 "Core/Inc/gpio.h"
 652              		.file 21 "<built-in>"
ARM GAS  /tmp/ccOTcrxF.s 			page 21


DEFINED SYMBOLS
                            *ABS*:00000000 main.c
     /tmp/ccOTcrxF.s:27     .text.get_motor_speed:00000000 $t
     /tmp/ccOTcrxF.s:33     .text.get_motor_speed:00000000 get_motor_speed
     /tmp/ccOTcrxF.s:137    .text.get_motor_speed:00000068 $d
     /tmp/ccOTcrxF.s:623    .bss.prev_count.1:00000000 prev_count.1
     /tmp/ccOTcrxF.s:617    .bss.prev_time.0:00000000 prev_time.0
     /tmp/ccOTcrxF.s:148    .text.Error_Handler:00000000 $t
     /tmp/ccOTcrxF.s:154    .text.Error_Handler:00000000 Error_Handler
     /tmp/ccOTcrxF.s:186    .text.SystemClock_Config:00000000 $t
     /tmp/ccOTcrxF.s:192    .text.SystemClock_Config:00000000 SystemClock_Config
     /tmp/ccOTcrxF.s:297    .rodata.main.str1.4:00000000 $d
     /tmp/ccOTcrxF.s:307    .text.main:00000000 $t
     /tmp/ccOTcrxF.s:313    .text.main:00000000 main
     /tmp/ccOTcrxF.s:597    .text.main:000001a0 $d
     /tmp/ccOTcrxF.s:630    .bss.encoder:00000000 encoder
     /tmp/ccOTcrxF.s:614    .bss.prev_time.0:00000000 $d
     /tmp/ccOTcrxF.s:620    .bss.prev_count.1:00000000 $d
     /tmp/ccOTcrxF.s:627    .bss.encoder:00000000 $d

UNDEFINED SYMBOLS
__aeabi_ui2f
__aeabi_fdiv
__aeabi_i2f
__aeabi_fadd
__aeabi_f2d
__aeabi_dmul
__aeabi_ddiv
__aeabi_d2f
HAL_GetTick
htim4
memset
HAL_RCC_OscConfig
HAL_RCC_ClockConfig
__aeabi_fmul
__aeabi_f2iz
HAL_Init
MX_GPIO_Init
MX_DMA_Init
MX_USART2_UART_Init
MX_USART1_UART_Init
MX_TIM3_Init
MX_TIM4_Init
HAL_TIM_Encoder_Start
MPU6050_Init
MPU6050_ReadData
MPU6050_ReadByte
sprintf
strlen
HAL_UART_Transmit
atan2
HAL_Delay
huart1
