ARM GAS  /tmp/ccxPAqpq.s 			page 1


   1              		.cpu cortex-m3
   2              		.arch armv7-m
   3              		.fpu softvfp
   4              		.eabi_attribute 20, 1
   5              		.eabi_attribute 21, 1
   6              		.eabi_attribute 23, 3
   7              		.eabi_attribute 24, 1
   8              		.eabi_attribute 25, 1
   9              		.eabi_attribute 26, 1
  10              		.eabi_attribute 30, 1
  11              		.eabi_attribute 34, 1
  12              		.eabi_attribute 18, 4
  13              		.file	"main.c"
  14              		.text
  15              	.Ltext0:
  16              		.cfi_sections	.debug_frame
  17              		.file 1 "Core/Src/main.c"
  18              		.global	__aeabi_ui2f
  19              		.global	__aeabi_fdiv
  20              		.global	__aeabi_i2f
  21              		.global	__aeabi_fadd
  22              		.global	__aeabi_f2d
  23              		.global	__aeabi_dmul
  24              		.global	__aeabi_ddiv
  25              		.global	__aeabi_d2f
  26              		.section	.text.get_motor_speed,"ax",%progbits
  27              		.align	1
  28              		.global	get_motor_speed
  29              		.syntax unified
  30              		.thumb
  31              		.thumb_func
  33              	get_motor_speed:
  34              	.LFB70:
   1:Core/Src/main.c **** /* USER CODE BEGIN Header */
   2:Core/Src/main.c **** /**
   3:Core/Src/main.c ****   ******************************************************************************
   4:Core/Src/main.c ****   * @file           : main.c
   5:Core/Src/main.c ****   * @brief          : Main program body
   6:Core/Src/main.c ****   ******************************************************************************
   7:Core/Src/main.c ****   * @attention
   8:Core/Src/main.c ****   *
   9:Core/Src/main.c ****   * Copyright (c) 2025 STMicroelectronics.
  10:Core/Src/main.c ****   * All rights reserved.
  11:Core/Src/main.c ****   *
  12:Core/Src/main.c ****   * This software is licensed under terms that can be found in the LICENSE file
  13:Core/Src/main.c ****   * in the root directory of this software component.
  14:Core/Src/main.c ****   * If no LICENSE file comes with this software, it is provided AS-IS.
  15:Core/Src/main.c ****   *
  16:Core/Src/main.c ****   ******************************************************************************
  17:Core/Src/main.c ****   */
  18:Core/Src/main.c **** /* USER CODE END Header */
  19:Core/Src/main.c **** /* Includes ------------------------------------------------------------------*/
  20:Core/Src/main.c **** #include "main.h"
  21:Core/Src/main.c **** #include "dma.h"
  22:Core/Src/main.c **** #include "tim.h"
  23:Core/Src/main.c **** #include "usart.h"
  24:Core/Src/main.c **** #include "gpio.h"
ARM GAS  /tmp/ccxPAqpq.s 			page 2


  25:Core/Src/main.c **** 
  26:Core/Src/main.c **** /* Private includes ----------------------------------------------------------*/
  27:Core/Src/main.c **** /* USER CODE BEGIN Includes */
  28:Core/Src/main.c **** #include <math.h>
  29:Core/Src/main.c **** #include <stdio.h>
  30:Core/Src/main.c **** #include <string.h> 
  31:Core/Src/main.c **** #include <mpu_6050.h>
  32:Core/Src/main.c **** /* USER CODE END Includes */
  33:Core/Src/main.c **** 
  34:Core/Src/main.c **** /* Private typedef -----------------------------------------------------------*/
  35:Core/Src/main.c **** /* USER CODE BEGIN PTD */
  36:Core/Src/main.c **** 
  37:Core/Src/main.c **** /* USER CODE END PTD */
  38:Core/Src/main.c **** 
  39:Core/Src/main.c **** /* Private define ------------------------------------------------------------*/
  40:Core/Src/main.c **** /* USER CODE BEGIN PD */
  41:Core/Src/main.c **** 
  42:Core/Src/main.c **** /* USER CODE END PD */
  43:Core/Src/main.c **** 
  44:Core/Src/main.c **** /* Private macro -------------------------------------------------------------*/
  45:Core/Src/main.c **** /* USER CODE BEGIN PM */
  46:Core/Src/main.c **** 
  47:Core/Src/main.c **** /* USER CODE END PM */
  48:Core/Src/main.c **** 
  49:Core/Src/main.c **** /* Private variables ---------------------------------------------------------*/
  50:Core/Src/main.c **** 
  51:Core/Src/main.c **** /* USER CODE BEGIN PV */
  52:Core/Src/main.c **** 
  53:Core/Src/main.c **** /* USER CODE END PV */
  54:Core/Src/main.c **** 
  55:Core/Src/main.c **** /* Private function prototypes -----------------------------------------------*/
  56:Core/Src/main.c **** void SystemClock_Config(void);
  57:Core/Src/main.c **** /* USER CODE BEGIN PFP */
  58:Core/Src/main.c **** 
  59:Core/Src/main.c **** /* USER CODE END PFP */
  60:Core/Src/main.c **** 
  61:Core/Src/main.c **** /* Private user code ---------------------------------------------------------*/
  62:Core/Src/main.c **** /* USER CODE BEGIN 0 */
  63:Core/Src/main.c **** uint32_t encoder = 0 ; 
  64:Core/Src/main.c **** float phi_dot = 0.0f;
  65:Core/Src/main.c **** #ifndef M_PI
  66:Core/Src/main.c **** #define M_PI 3.14159265358979323846
  67:Core/Src/main.c **** #endif
  68:Core/Src/main.c **** #define ENCODER_CPR 400
  69:Core/Src/main.c **** uint16_t motor_duty =  0;
  70:Core/Src/main.c **** float get_motor_speed(void);
  71:Core/Src/main.c **** volatile float motor_speed_rpm;
  72:Core/Src/main.c **** /* USER CODE END 0 */
  73:Core/Src/main.c **** 
  74:Core/Src/main.c **** /**
  75:Core/Src/main.c ****   * @brief  The application entry point.
  76:Core/Src/main.c ****   * @retval int
  77:Core/Src/main.c ****   */
  78:Core/Src/main.c **** int main(void)
  79:Core/Src/main.c **** {
  80:Core/Src/main.c **** 
  81:Core/Src/main.c ****   /* USER CODE BEGIN 1 */
ARM GAS  /tmp/ccxPAqpq.s 			page 3


  82:Core/Src/main.c ****   // setup();
  83:Core/Src/main.c ****   /* USER CODE END 1 */
  84:Core/Src/main.c **** 
  85:Core/Src/main.c ****   /* MCU Configuration--------------------------------------------------------*/
  86:Core/Src/main.c **** 
  87:Core/Src/main.c ****   /* Reset of all peripherals, Initializes the Flash interface and the Systick. */
  88:Core/Src/main.c ****   HAL_Init();
  89:Core/Src/main.c **** 
  90:Core/Src/main.c ****   /* USER CODE BEGIN Init */
  91:Core/Src/main.c **** 
  92:Core/Src/main.c ****   /* USER CODE END Init */
  93:Core/Src/main.c **** 
  94:Core/Src/main.c ****   /* Configure the system clock */
  95:Core/Src/main.c ****   SystemClock_Config();
  96:Core/Src/main.c **** 
  97:Core/Src/main.c ****   /* USER CODE BEGIN SysInit */
  98:Core/Src/main.c **** 
  99:Core/Src/main.c ****   /* USER CODE END SysInit */
 100:Core/Src/main.c **** 
 101:Core/Src/main.c ****   /* Initialize all configured peripherals */
 102:Core/Src/main.c ****   MX_GPIO_Init();
 103:Core/Src/main.c ****   MX_DMA_Init();
 104:Core/Src/main.c ****   MX_USART2_UART_Init();
 105:Core/Src/main.c ****   MX_USART1_UART_Init();
 106:Core/Src/main.c ****   MX_TIM4_Init();
 107:Core/Src/main.c ****   MX_TIM1_Init();
 108:Core/Src/main.c ****   /* USER CODE BEGIN 2 */
 109:Core/Src/main.c ****   HAL_TIM_Encoder_Start(&htim4, TIM_CHANNEL_ALL);
 110:Core/Src/main.c ****   MPU6050_Init();
 111:Core/Src/main.c ****   HAL_TIM_PWM_Start(&htim1, TIM_CHANNEL_ALL);
 112:Core/Src/main.c ****   /* USER CODE END 2 */
 113:Core/Src/main.c **** 
 114:Core/Src/main.c ****   /* Infinite loop */
 115:Core/Src/main.c ****   /* USER CODE BEGIN WHILE */
 116:Core/Src/main.c ****   // char buf[32];
 117:Core/Src/main.c ****   char buffer[512];
 118:Core/Src/main.c ****   float accel[3], gyro[3]; 
 119:Core/Src/main.c ****   motor_duty = 0.5;
 120:Core/Src/main.c **** 
 121:Core/Src/main.c ****   while (1)
 122:Core/Src/main.c ****   {
 123:Core/Src/main.c ****       // HAL_UART_Transmit(&huart2, (uint8_t *)msg, sizeof(msg), 1000);
 124:Core/Src/main.c ****       encoder = __HAL_TIM_GET_COUNTER(&htim4);    
 125:Core/Src/main.c ****       // int len = sprintf(buf, "Received Value: %lu\r\n", encoder); 
 126:Core/Src/main.c ****       // HAL_UART_Transmit(&huart1, (uint8_t *)buf, len, 1000);
 127:Core/Src/main.c **** 
 128:Core/Src/main.c ****       MPU6050_ReadData(accel, gyro);
 129:Core/Src/main.c **** 
 130:Core/Src/main.c ****       // sprintf(buffer, "AX:%f AY:%f AZ:%f GX:%f GY:%f GZ:%f\r\n",
 131:Core/Src/main.c ****       //           accel[0], accel[1], accel[2],
 132:Core/Src/main.c ****       //           gyro[0], gyro[1], gyro[2]);
 133:Core/Src/main.c ****       
 134:Core/Src/main.c ****       uint8_t id = MPU6050_ReadByte(0x75);
 135:Core/Src/main.c ****       sprintf(buffer, "WHO_AM_I = 0x%02X\r\n", id);
 136:Core/Src/main.c ****       HAL_UART_Transmit(&huart1, (uint8_t*)buffer, strlen(buffer), HAL_MAX_DELAY);
 137:Core/Src/main.c ****       float gx_rad = gyro[0] * (M_PI / 180.0f);
 138:Core/Src/main.c ****       float theta = atan2(accel[1],accel[2]) * 180.0f / M_PI ;
ARM GAS  /tmp/ccxPAqpq.s 			page 4


 139:Core/Src/main.c ****       float phi = encoder * 2.0f * M_PI/ENCODER_CPR;
 140:Core/Src/main.c ****       phi_dot = get_motor_speed();
 141:Core/Src/main.c ****       snprintf(buffer, sizeof(buffer),
 142:Core/Src/main.c ****             "AX:%d AY:%d AZ:%d GX:%d GY:%d GZ:%d theta : %f thetadot: %f phi : %f phi_dot : %f\r\n"
 143:Core/Src/main.c ****             (int)(accel[0]*1000), (int)(accel[1]*1000), (int)(accel[2]*1000),
 144:Core/Src/main.c ****             (int)(gyro[0]*100), (int)(gyro[1]*100), (int)(gyro[2]*100), theta, gx_rad, phi, phi_dot
 145:Core/Src/main.c ****       HAL_UART_Transmit(&huart1, (uint8_t*)buffer, strlen(buffer), HAL_MAX_DELAY);
 146:Core/Src/main.c ****       htim1.Instance->CCR1 = (uint32_t)(motor_duty * htim1.Instance->ARR);     
 147:Core/Src/main.c ****       HAL_Delay(10);  
 148:Core/Src/main.c ****       // encoder = __HAL_TIM_GET_COUNTER(&htim2);
 149:Core/Src/main.c **** 
 150:Core/Src/main.c ****     /* USER CODE END WHILE */
 151:Core/Src/main.c **** 
 152:Core/Src/main.c ****     /* USER CODE BEGIN 3 */
 153:Core/Src/main.c ****   }
 154:Core/Src/main.c ****   /* USER CODE END 3 */
 155:Core/Src/main.c **** }
 156:Core/Src/main.c **** 
 157:Core/Src/main.c **** /**
 158:Core/Src/main.c ****   * @brief System Clock Configuration
 159:Core/Src/main.c ****   * @retval None
 160:Core/Src/main.c ****   */
 161:Core/Src/main.c **** void SystemClock_Config(void)
 162:Core/Src/main.c **** {
 163:Core/Src/main.c ****   RCC_OscInitTypeDef RCC_OscInitStruct = {0};
 164:Core/Src/main.c ****   RCC_ClkInitTypeDef RCC_ClkInitStruct = {0};
 165:Core/Src/main.c **** 
 166:Core/Src/main.c ****   /** Initializes the RCC Oscillators according to the specified parameters
 167:Core/Src/main.c ****   * in the RCC_OscInitTypeDef structure.
 168:Core/Src/main.c ****   */
 169:Core/Src/main.c ****   RCC_OscInitStruct.OscillatorType = RCC_OSCILLATORTYPE_HSE;
 170:Core/Src/main.c ****   RCC_OscInitStruct.HSEState = RCC_HSE_ON;
 171:Core/Src/main.c ****   RCC_OscInitStruct.HSEPredivValue = RCC_HSE_PREDIV_DIV1;
 172:Core/Src/main.c ****   RCC_OscInitStruct.HSIState = RCC_HSI_ON;
 173:Core/Src/main.c ****   RCC_OscInitStruct.PLL.PLLState = RCC_PLL_ON;
 174:Core/Src/main.c ****   RCC_OscInitStruct.PLL.PLLSource = RCC_PLLSOURCE_HSE;
 175:Core/Src/main.c ****   RCC_OscInitStruct.PLL.PLLMUL = RCC_PLL_MUL9;
 176:Core/Src/main.c ****   if (HAL_RCC_OscConfig(&RCC_OscInitStruct) != HAL_OK)
 177:Core/Src/main.c ****   {
 178:Core/Src/main.c ****     Error_Handler();
 179:Core/Src/main.c ****   }
 180:Core/Src/main.c **** 
 181:Core/Src/main.c ****   /** Initializes the CPU, AHB and APB buses clocks
 182:Core/Src/main.c ****   */
 183:Core/Src/main.c ****   RCC_ClkInitStruct.ClockType = RCC_CLOCKTYPE_HCLK|RCC_CLOCKTYPE_SYSCLK
 184:Core/Src/main.c ****                               |RCC_CLOCKTYPE_PCLK1|RCC_CLOCKTYPE_PCLK2;
 185:Core/Src/main.c ****   RCC_ClkInitStruct.SYSCLKSource = RCC_SYSCLKSOURCE_PLLCLK;
 186:Core/Src/main.c ****   RCC_ClkInitStruct.AHBCLKDivider = RCC_SYSCLK_DIV1;
 187:Core/Src/main.c ****   RCC_ClkInitStruct.APB1CLKDivider = RCC_HCLK_DIV2;
 188:Core/Src/main.c ****   RCC_ClkInitStruct.APB2CLKDivider = RCC_HCLK_DIV1;
 189:Core/Src/main.c **** 
 190:Core/Src/main.c ****   if (HAL_RCC_ClockConfig(&RCC_ClkInitStruct, FLASH_LATENCY_2) != HAL_OK)
 191:Core/Src/main.c ****   {
 192:Core/Src/main.c ****     Error_Handler();
 193:Core/Src/main.c ****   }
 194:Core/Src/main.c **** }
 195:Core/Src/main.c **** 
ARM GAS  /tmp/ccxPAqpq.s 			page 5


 196:Core/Src/main.c **** /* USER CODE BEGIN 4 */
 197:Core/Src/main.c **** float get_motor_speed() {
  35              		.loc 1 197 25 view -0
  36              		.cfi_startproc
  37              		@ args = 0, pretend = 0, frame = 0
  38              		@ frame_needed = 0, uses_anonymous_args = 0
  39 0000 F8B5     		push	{r3, r4, r5, r6, r7, lr}
  40              	.LCFI0:
  41              		.cfi_def_cfa_offset 24
  42              		.cfi_offset 3, -24
  43              		.cfi_offset 4, -20
  44              		.cfi_offset 5, -16
  45              		.cfi_offset 6, -12
  46              		.cfi_offset 7, -8
  47              		.cfi_offset 14, -4
 198:Core/Src/main.c ****     static int32_t prev_count = 0;
  48              		.loc 1 198 5 view .LVU1
 199:Core/Src/main.c ****     static uint32_t prev_time = 0;   
  49              		.loc 1 199 5 view .LVU2
 200:Core/Src/main.c ****     int32_t count = __HAL_TIM_GET_COUNTER(&htim4);
  50              		.loc 1 200 5 view .LVU3
  51              		.loc 1 200 21 is_stmt 0 view .LVU4
  52 0002 1B4B     		ldr	r3, .L3+8
  53 0004 1B68     		ldr	r3, [r3]
  54 0006 5A6A     		ldr	r2, [r3, #36]
  55              	.LVL0:
 201:Core/Src/main.c ****     int32_t delta = count - prev_count;
  56              		.loc 1 201 5 is_stmt 1 view .LVU5
  57              		.loc 1 201 27 is_stmt 0 view .LVU6
  58 0008 1A4B     		ldr	r3, .L3+12
  59 000a 1D68     		ldr	r5, [r3]
  60              		.loc 1 201 13 view .LVU7
  61 000c 551B     		subs	r5, r2, r5
  62              	.LVL1:
 202:Core/Src/main.c ****     prev_count = count;
  63              		.loc 1 202 5 is_stmt 1 view .LVU8
  64              		.loc 1 202 16 is_stmt 0 view .LVU9
  65 000e 1A60     		str	r2, [r3]
 203:Core/Src/main.c **** 
 204:Core/Src/main.c ****     uint32_t now_time = HAL_GetTick(); 
  66              		.loc 1 204 5 is_stmt 1 view .LVU10
  67              		.loc 1 204 25 is_stmt 0 view .LVU11
  68 0010 FFF7FEFF 		bl	HAL_GetTick
  69              	.LVL2:
  70              		.loc 1 204 25 view .LVU12
  71 0014 0446     		mov	r4, r0
  72              	.LVL3:
 205:Core/Src/main.c ****     float dt = (now_time - prev_time) / 1000.0f;  
  73              		.loc 1 205 5 is_stmt 1 view .LVU13
  74              		.loc 1 205 26 is_stmt 0 view .LVU14
  75 0016 184F     		ldr	r7, .L3+16
  76 0018 3868     		ldr	r0, [r7]
  77              	.LVL4:
  78              		.loc 1 205 39 view .LVU15
  79 001a 201A     		subs	r0, r4, r0
  80 001c FFF7FEFF 		bl	__aeabi_ui2f
  81              	.LVL5:
ARM GAS  /tmp/ccxPAqpq.s 			page 6


  82              		.loc 1 205 11 view .LVU16
  83 0020 1649     		ldr	r1, .L3+20
  84 0022 FFF7FEFF 		bl	__aeabi_fdiv
  85              	.LVL6:
  86 0026 0646     		mov	r6, r0
  87              	.LVL7:
 206:Core/Src/main.c ****     prev_time = now_time;
  88              		.loc 1 206 5 is_stmt 1 view .LVU17
  89              		.loc 1 206 15 is_stmt 0 view .LVU18
  90 0028 3C60     		str	r4, [r7]
 207:Core/Src/main.c **** 
 208:Core/Src/main.c ****     return ((float)delta / ENCODER_CPR) * 2.0f * M_PI / dt; // rad/s
  91              		.loc 1 208 5 is_stmt 1 view .LVU19
  92              		.loc 1 208 13 is_stmt 0 view .LVU20
  93 002a 2846     		mov	r0, r5
  94              	.LVL8:
  95              		.loc 1 208 13 view .LVU21
  96 002c FFF7FEFF 		bl	__aeabi_i2f
  97              	.LVL9:
  98              		.loc 1 208 26 view .LVU22
  99 0030 1349     		ldr	r1, .L3+24
 100 0032 FFF7FEFF 		bl	__aeabi_fdiv
 101              	.LVL10:
 102 0036 0146     		mov	r1, r0
 103              		.loc 1 208 41 view .LVU23
 104 0038 FFF7FEFF 		bl	__aeabi_fadd
 105              	.LVL11:
 106 003c FFF7FEFF 		bl	__aeabi_f2d
 107              	.LVL12:
 108              		.loc 1 208 48 view .LVU24
 109 0040 09A3     		adr	r3, .L3
 110 0042 D3E90023 		ldrd	r2, [r3]
 111 0046 FFF7FEFF 		bl	__aeabi_dmul
 112              	.LVL13:
 113 004a 0446     		mov	r4, r0
 114              	.LVL14:
 115              		.loc 1 208 48 view .LVU25
 116 004c 0D46     		mov	r5, r1
 117              	.LVL15:
 118              		.loc 1 208 55 view .LVU26
 119 004e 3046     		mov	r0, r6
 120 0050 FFF7FEFF 		bl	__aeabi_f2d
 121              	.LVL16:
 122 0054 0246     		mov	r2, r0
 123 0056 0B46     		mov	r3, r1
 124 0058 2046     		mov	r0, r4
 125 005a 2946     		mov	r1, r5
 126 005c FFF7FEFF 		bl	__aeabi_ddiv
 127              	.LVL17:
 128 0060 FFF7FEFF 		bl	__aeabi_d2f
 129              	.LVL18:
 209:Core/Src/main.c **** }
 130              		.loc 1 209 1 view .LVU27
 131 0064 F8BD     		pop	{r3, r4, r5, r6, r7, pc}
 132              	.LVL19:
 133              	.L4:
 134              		.loc 1 209 1 view .LVU28
ARM GAS  /tmp/ccxPAqpq.s 			page 7


 135 0066 00BF     		.align	3
 136              	.L3:
 137 0068 182D4454 		.word	1413754136
 138 006c FB210940 		.word	1074340347
 139 0070 00000000 		.word	htim4
 140 0074 00000000 		.word	prev_count.1
 141 0078 00000000 		.word	prev_time.0
 142 007c 00007A44 		.word	1148846080
 143 0080 0000C843 		.word	1137180672
 144              		.cfi_endproc
 145              	.LFE70:
 147              		.section	.text.Error_Handler,"ax",%progbits
 148              		.align	1
 149              		.global	Error_Handler
 150              		.syntax unified
 151              		.thumb
 152              		.thumb_func
 154              	Error_Handler:
 155              	.LFB71:
 210:Core/Src/main.c **** /* USER CODE END 4 */
 211:Core/Src/main.c **** 
 212:Core/Src/main.c **** /**
 213:Core/Src/main.c ****   * @brief  This function is executed in case of error occurrence.
 214:Core/Src/main.c ****   * @retval None
 215:Core/Src/main.c ****   */
 216:Core/Src/main.c **** void Error_Handler(void)
 217:Core/Src/main.c **** {
 156              		.loc 1 217 1 is_stmt 1 view -0
 157              		.cfi_startproc
 158              		@ Volatile: function does not return.
 159              		@ args = 0, pretend = 0, frame = 0
 160              		@ frame_needed = 0, uses_anonymous_args = 0
 161              		@ link register save eliminated.
 218:Core/Src/main.c ****   /* USER CODE BEGIN Error_Handler_Debug */
 219:Core/Src/main.c ****   /* User can add his own implementation to report the HAL error return state */
 220:Core/Src/main.c ****   __disable_irq();
 162              		.loc 1 220 3 view .LVU30
 163              	.LBB4:
 164              	.LBI4:
 165              		.file 2 "Drivers/CMSIS/Include/cmsis_gcc.h"
   1:Drivers/CMSIS/Include/cmsis_gcc.h **** /**************************************************************************//**
   2:Drivers/CMSIS/Include/cmsis_gcc.h ****  * @file     cmsis_gcc.h
   3:Drivers/CMSIS/Include/cmsis_gcc.h ****  * @brief    CMSIS compiler GCC header file
   4:Drivers/CMSIS/Include/cmsis_gcc.h ****  * @version  V5.0.4
   5:Drivers/CMSIS/Include/cmsis_gcc.h ****  * @date     09. April 2018
   6:Drivers/CMSIS/Include/cmsis_gcc.h ****  ******************************************************************************/
   7:Drivers/CMSIS/Include/cmsis_gcc.h **** /*
   8:Drivers/CMSIS/Include/cmsis_gcc.h ****  * Copyright (c) 2009-2018 Arm Limited. All rights reserved.
   9:Drivers/CMSIS/Include/cmsis_gcc.h ****  *
  10:Drivers/CMSIS/Include/cmsis_gcc.h ****  * SPDX-License-Identifier: Apache-2.0
  11:Drivers/CMSIS/Include/cmsis_gcc.h ****  *
  12:Drivers/CMSIS/Include/cmsis_gcc.h ****  * Licensed under the Apache License, Version 2.0 (the License); you may
  13:Drivers/CMSIS/Include/cmsis_gcc.h ****  * not use this file except in compliance with the License.
  14:Drivers/CMSIS/Include/cmsis_gcc.h ****  * You may obtain a copy of the License at
  15:Drivers/CMSIS/Include/cmsis_gcc.h ****  *
  16:Drivers/CMSIS/Include/cmsis_gcc.h ****  * www.apache.org/licenses/LICENSE-2.0
  17:Drivers/CMSIS/Include/cmsis_gcc.h ****  *
ARM GAS  /tmp/ccxPAqpq.s 			page 8


  18:Drivers/CMSIS/Include/cmsis_gcc.h ****  * Unless required by applicable law or agreed to in writing, software
  19:Drivers/CMSIS/Include/cmsis_gcc.h ****  * distributed under the License is distributed on an AS IS BASIS, WITHOUT
  20:Drivers/CMSIS/Include/cmsis_gcc.h ****  * WARRANTIES OR CONDITIONS OF ANY KIND, either express or implied.
  21:Drivers/CMSIS/Include/cmsis_gcc.h ****  * See the License for the specific language governing permissions and
  22:Drivers/CMSIS/Include/cmsis_gcc.h ****  * limitations under the License.
  23:Drivers/CMSIS/Include/cmsis_gcc.h ****  */
  24:Drivers/CMSIS/Include/cmsis_gcc.h **** 
  25:Drivers/CMSIS/Include/cmsis_gcc.h **** #ifndef __CMSIS_GCC_H
  26:Drivers/CMSIS/Include/cmsis_gcc.h **** #define __CMSIS_GCC_H
  27:Drivers/CMSIS/Include/cmsis_gcc.h **** 
  28:Drivers/CMSIS/Include/cmsis_gcc.h **** /* ignore some GCC warnings */
  29:Drivers/CMSIS/Include/cmsis_gcc.h **** #pragma GCC diagnostic push
  30:Drivers/CMSIS/Include/cmsis_gcc.h **** #pragma GCC diagnostic ignored "-Wsign-conversion"
  31:Drivers/CMSIS/Include/cmsis_gcc.h **** #pragma GCC diagnostic ignored "-Wconversion"
  32:Drivers/CMSIS/Include/cmsis_gcc.h **** #pragma GCC diagnostic ignored "-Wunused-parameter"
  33:Drivers/CMSIS/Include/cmsis_gcc.h **** 
  34:Drivers/CMSIS/Include/cmsis_gcc.h **** /* Fallback for __has_builtin */
  35:Drivers/CMSIS/Include/cmsis_gcc.h **** #ifndef __has_builtin
  36:Drivers/CMSIS/Include/cmsis_gcc.h ****   #define __has_builtin(x) (0)
  37:Drivers/CMSIS/Include/cmsis_gcc.h **** #endif
  38:Drivers/CMSIS/Include/cmsis_gcc.h **** 
  39:Drivers/CMSIS/Include/cmsis_gcc.h **** /* CMSIS compiler specific defines */
  40:Drivers/CMSIS/Include/cmsis_gcc.h **** #ifndef   __ASM
  41:Drivers/CMSIS/Include/cmsis_gcc.h ****   #define __ASM                                  __asm
  42:Drivers/CMSIS/Include/cmsis_gcc.h **** #endif
  43:Drivers/CMSIS/Include/cmsis_gcc.h **** #ifndef   __INLINE
  44:Drivers/CMSIS/Include/cmsis_gcc.h ****   #define __INLINE                               inline
  45:Drivers/CMSIS/Include/cmsis_gcc.h **** #endif
  46:Drivers/CMSIS/Include/cmsis_gcc.h **** #ifndef   __STATIC_INLINE
  47:Drivers/CMSIS/Include/cmsis_gcc.h ****   #define __STATIC_INLINE                        static inline
  48:Drivers/CMSIS/Include/cmsis_gcc.h **** #endif
  49:Drivers/CMSIS/Include/cmsis_gcc.h **** #ifndef   __STATIC_FORCEINLINE                 
  50:Drivers/CMSIS/Include/cmsis_gcc.h ****   #define __STATIC_FORCEINLINE                   __attribute__((always_inline)) static inline
  51:Drivers/CMSIS/Include/cmsis_gcc.h **** #endif                                           
  52:Drivers/CMSIS/Include/cmsis_gcc.h **** #ifndef   __NO_RETURN
  53:Drivers/CMSIS/Include/cmsis_gcc.h ****   #define __NO_RETURN                            __attribute__((__noreturn__))
  54:Drivers/CMSIS/Include/cmsis_gcc.h **** #endif
  55:Drivers/CMSIS/Include/cmsis_gcc.h **** #ifndef   __USED
  56:Drivers/CMSIS/Include/cmsis_gcc.h ****   #define __USED                                 __attribute__((used))
  57:Drivers/CMSIS/Include/cmsis_gcc.h **** #endif
  58:Drivers/CMSIS/Include/cmsis_gcc.h **** #ifndef   __WEAK
  59:Drivers/CMSIS/Include/cmsis_gcc.h ****   #define __WEAK                                 __attribute__((weak))
  60:Drivers/CMSIS/Include/cmsis_gcc.h **** #endif
  61:Drivers/CMSIS/Include/cmsis_gcc.h **** #ifndef   __PACKED
  62:Drivers/CMSIS/Include/cmsis_gcc.h ****   #define __PACKED                               __attribute__((packed, aligned(1)))
  63:Drivers/CMSIS/Include/cmsis_gcc.h **** #endif
  64:Drivers/CMSIS/Include/cmsis_gcc.h **** #ifndef   __PACKED_STRUCT
  65:Drivers/CMSIS/Include/cmsis_gcc.h ****   #define __PACKED_STRUCT                        struct __attribute__((packed, aligned(1)))
  66:Drivers/CMSIS/Include/cmsis_gcc.h **** #endif
  67:Drivers/CMSIS/Include/cmsis_gcc.h **** #ifndef   __PACKED_UNION
  68:Drivers/CMSIS/Include/cmsis_gcc.h ****   #define __PACKED_UNION                         union __attribute__((packed, aligned(1)))
  69:Drivers/CMSIS/Include/cmsis_gcc.h **** #endif
  70:Drivers/CMSIS/Include/cmsis_gcc.h **** #ifndef   __UNALIGNED_UINT32        /* deprecated */
  71:Drivers/CMSIS/Include/cmsis_gcc.h ****   #pragma GCC diagnostic push
  72:Drivers/CMSIS/Include/cmsis_gcc.h ****   #pragma GCC diagnostic ignored "-Wpacked"
  73:Drivers/CMSIS/Include/cmsis_gcc.h ****   #pragma GCC diagnostic ignored "-Wattributes"
  74:Drivers/CMSIS/Include/cmsis_gcc.h ****   struct __attribute__((packed)) T_UINT32 { uint32_t v; };
ARM GAS  /tmp/ccxPAqpq.s 			page 9


  75:Drivers/CMSIS/Include/cmsis_gcc.h ****   #pragma GCC diagnostic pop
  76:Drivers/CMSIS/Include/cmsis_gcc.h ****   #define __UNALIGNED_UINT32(x)                  (((struct T_UINT32 *)(x))->v)
  77:Drivers/CMSIS/Include/cmsis_gcc.h **** #endif
  78:Drivers/CMSIS/Include/cmsis_gcc.h **** #ifndef   __UNALIGNED_UINT16_WRITE
  79:Drivers/CMSIS/Include/cmsis_gcc.h ****   #pragma GCC diagnostic push
  80:Drivers/CMSIS/Include/cmsis_gcc.h ****   #pragma GCC diagnostic ignored "-Wpacked"
  81:Drivers/CMSIS/Include/cmsis_gcc.h ****   #pragma GCC diagnostic ignored "-Wattributes"
  82:Drivers/CMSIS/Include/cmsis_gcc.h ****   __PACKED_STRUCT T_UINT16_WRITE { uint16_t v; };
  83:Drivers/CMSIS/Include/cmsis_gcc.h ****   #pragma GCC diagnostic pop
  84:Drivers/CMSIS/Include/cmsis_gcc.h ****   #define __UNALIGNED_UINT16_WRITE(addr, val)    (void)((((struct T_UINT16_WRITE *)(void *)(addr))-
  85:Drivers/CMSIS/Include/cmsis_gcc.h **** #endif
  86:Drivers/CMSIS/Include/cmsis_gcc.h **** #ifndef   __UNALIGNED_UINT16_READ
  87:Drivers/CMSIS/Include/cmsis_gcc.h ****   #pragma GCC diagnostic push
  88:Drivers/CMSIS/Include/cmsis_gcc.h ****   #pragma GCC diagnostic ignored "-Wpacked"
  89:Drivers/CMSIS/Include/cmsis_gcc.h ****   #pragma GCC diagnostic ignored "-Wattributes"
  90:Drivers/CMSIS/Include/cmsis_gcc.h ****   __PACKED_STRUCT T_UINT16_READ { uint16_t v; };
  91:Drivers/CMSIS/Include/cmsis_gcc.h ****   #pragma GCC diagnostic pop
  92:Drivers/CMSIS/Include/cmsis_gcc.h ****   #define __UNALIGNED_UINT16_READ(addr)          (((const struct T_UINT16_READ *)(const void *)(add
  93:Drivers/CMSIS/Include/cmsis_gcc.h **** #endif
  94:Drivers/CMSIS/Include/cmsis_gcc.h **** #ifndef   __UNALIGNED_UINT32_WRITE
  95:Drivers/CMSIS/Include/cmsis_gcc.h ****   #pragma GCC diagnostic push
  96:Drivers/CMSIS/Include/cmsis_gcc.h ****   #pragma GCC diagnostic ignored "-Wpacked"
  97:Drivers/CMSIS/Include/cmsis_gcc.h ****   #pragma GCC diagnostic ignored "-Wattributes"
  98:Drivers/CMSIS/Include/cmsis_gcc.h ****   __PACKED_STRUCT T_UINT32_WRITE { uint32_t v; };
  99:Drivers/CMSIS/Include/cmsis_gcc.h ****   #pragma GCC diagnostic pop
 100:Drivers/CMSIS/Include/cmsis_gcc.h ****   #define __UNALIGNED_UINT32_WRITE(addr, val)    (void)((((struct T_UINT32_WRITE *)(void *)(addr))-
 101:Drivers/CMSIS/Include/cmsis_gcc.h **** #endif
 102:Drivers/CMSIS/Include/cmsis_gcc.h **** #ifndef   __UNALIGNED_UINT32_READ
 103:Drivers/CMSIS/Include/cmsis_gcc.h ****   #pragma GCC diagnostic push
 104:Drivers/CMSIS/Include/cmsis_gcc.h ****   #pragma GCC diagnostic ignored "-Wpacked"
 105:Drivers/CMSIS/Include/cmsis_gcc.h ****   #pragma GCC diagnostic ignored "-Wattributes"
 106:Drivers/CMSIS/Include/cmsis_gcc.h ****   __PACKED_STRUCT T_UINT32_READ { uint32_t v; };
 107:Drivers/CMSIS/Include/cmsis_gcc.h ****   #pragma GCC diagnostic pop
 108:Drivers/CMSIS/Include/cmsis_gcc.h ****   #define __UNALIGNED_UINT32_READ(addr)          (((const struct T_UINT32_READ *)(const void *)(add
 109:Drivers/CMSIS/Include/cmsis_gcc.h **** #endif
 110:Drivers/CMSIS/Include/cmsis_gcc.h **** #ifndef   __ALIGNED
 111:Drivers/CMSIS/Include/cmsis_gcc.h ****   #define __ALIGNED(x)                           __attribute__((aligned(x)))
 112:Drivers/CMSIS/Include/cmsis_gcc.h **** #endif
 113:Drivers/CMSIS/Include/cmsis_gcc.h **** #ifndef   __RESTRICT
 114:Drivers/CMSIS/Include/cmsis_gcc.h ****   #define __RESTRICT                             __restrict
 115:Drivers/CMSIS/Include/cmsis_gcc.h **** #endif
 116:Drivers/CMSIS/Include/cmsis_gcc.h **** 
 117:Drivers/CMSIS/Include/cmsis_gcc.h **** 
 118:Drivers/CMSIS/Include/cmsis_gcc.h **** /* ###########################  Core Function Access  ########################### */
 119:Drivers/CMSIS/Include/cmsis_gcc.h **** /** \ingroup  CMSIS_Core_FunctionInterface
 120:Drivers/CMSIS/Include/cmsis_gcc.h ****     \defgroup CMSIS_Core_RegAccFunctions CMSIS Core Register Access Functions
 121:Drivers/CMSIS/Include/cmsis_gcc.h ****   @{
 122:Drivers/CMSIS/Include/cmsis_gcc.h ****  */
 123:Drivers/CMSIS/Include/cmsis_gcc.h **** 
 124:Drivers/CMSIS/Include/cmsis_gcc.h **** /**
 125:Drivers/CMSIS/Include/cmsis_gcc.h ****   \brief   Enable IRQ Interrupts
 126:Drivers/CMSIS/Include/cmsis_gcc.h ****   \details Enables IRQ interrupts by clearing the I-bit in the CPSR.
 127:Drivers/CMSIS/Include/cmsis_gcc.h ****            Can only be executed in Privileged modes.
 128:Drivers/CMSIS/Include/cmsis_gcc.h ****  */
 129:Drivers/CMSIS/Include/cmsis_gcc.h **** __STATIC_FORCEINLINE void __enable_irq(void)
 130:Drivers/CMSIS/Include/cmsis_gcc.h **** {
 131:Drivers/CMSIS/Include/cmsis_gcc.h ****   __ASM volatile ("cpsie i" : : : "memory");
ARM GAS  /tmp/ccxPAqpq.s 			page 10


 132:Drivers/CMSIS/Include/cmsis_gcc.h **** }
 133:Drivers/CMSIS/Include/cmsis_gcc.h **** 
 134:Drivers/CMSIS/Include/cmsis_gcc.h **** 
 135:Drivers/CMSIS/Include/cmsis_gcc.h **** /**
 136:Drivers/CMSIS/Include/cmsis_gcc.h ****   \brief   Disable IRQ Interrupts
 137:Drivers/CMSIS/Include/cmsis_gcc.h ****   \details Disables IRQ interrupts by setting the I-bit in the CPSR.
 138:Drivers/CMSIS/Include/cmsis_gcc.h ****            Can only be executed in Privileged modes.
 139:Drivers/CMSIS/Include/cmsis_gcc.h ****  */
 140:Drivers/CMSIS/Include/cmsis_gcc.h **** __STATIC_FORCEINLINE void __disable_irq(void)
 166              		.loc 2 140 27 view .LVU31
 167              	.LBB5:
 141:Drivers/CMSIS/Include/cmsis_gcc.h **** {
 142:Drivers/CMSIS/Include/cmsis_gcc.h ****   __ASM volatile ("cpsid i" : : : "memory");
 168              		.loc 2 142 3 view .LVU32
 169              		.syntax unified
 170              	@ 142 "Drivers/CMSIS/Include/cmsis_gcc.h" 1
 171 0000 72B6     		cpsid i
 172              	@ 0 "" 2
 173              		.thumb
 174              		.syntax unified
 175              	.L6:
 176              	.LBE5:
 177              	.LBE4:
 221:Core/Src/main.c ****   while (1)
 178              		.loc 1 221 3 view .LVU33
 222:Core/Src/main.c ****   {
 223:Core/Src/main.c ****   }
 179              		.loc 1 223 3 view .LVU34
 221:Core/Src/main.c ****   while (1)
 180              		.loc 1 221 9 view .LVU35
 181 0002 FEE7     		b	.L6
 182              		.cfi_endproc
 183              	.LFE71:
 185              		.section	.text.SystemClock_Config,"ax",%progbits
 186              		.align	1
 187              		.global	SystemClock_Config
 188              		.syntax unified
 189              		.thumb
 190              		.thumb_func
 192              	SystemClock_Config:
 193              	.LFB69:
 162:Core/Src/main.c ****   RCC_OscInitTypeDef RCC_OscInitStruct = {0};
 194              		.loc 1 162 1 view -0
 195              		.cfi_startproc
 196              		@ args = 0, pretend = 0, frame = 64
 197              		@ frame_needed = 0, uses_anonymous_args = 0
 198 0000 00B5     		push	{lr}
 199              	.LCFI1:
 200              		.cfi_def_cfa_offset 4
 201              		.cfi_offset 14, -4
 202 0002 91B0     		sub	sp, sp, #68
 203              	.LCFI2:
 204              		.cfi_def_cfa_offset 72
 163:Core/Src/main.c ****   RCC_ClkInitTypeDef RCC_ClkInitStruct = {0};
 205              		.loc 1 163 3 view .LVU37
 163:Core/Src/main.c ****   RCC_ClkInitTypeDef RCC_ClkInitStruct = {0};
 206              		.loc 1 163 22 is_stmt 0 view .LVU38
ARM GAS  /tmp/ccxPAqpq.s 			page 11


 207 0004 2822     		movs	r2, #40
 208 0006 0021     		movs	r1, #0
 209 0008 06A8     		add	r0, sp, #24
 210 000a FFF7FEFF 		bl	memset
 211              	.LVL20:
 164:Core/Src/main.c **** 
 212              		.loc 1 164 3 is_stmt 1 view .LVU39
 164:Core/Src/main.c **** 
 213              		.loc 1 164 22 is_stmt 0 view .LVU40
 214 000e 0023     		movs	r3, #0
 215 0010 0193     		str	r3, [sp, #4]
 216 0012 0293     		str	r3, [sp, #8]
 217 0014 0393     		str	r3, [sp, #12]
 218 0016 0493     		str	r3, [sp, #16]
 219 0018 0593     		str	r3, [sp, #20]
 169:Core/Src/main.c ****   RCC_OscInitStruct.HSEState = RCC_HSE_ON;
 220              		.loc 1 169 3 is_stmt 1 view .LVU41
 169:Core/Src/main.c ****   RCC_OscInitStruct.HSEState = RCC_HSE_ON;
 221              		.loc 1 169 36 is_stmt 0 view .LVU42
 222 001a 0122     		movs	r2, #1
 223 001c 0692     		str	r2, [sp, #24]
 170:Core/Src/main.c ****   RCC_OscInitStruct.HSEPredivValue = RCC_HSE_PREDIV_DIV1;
 224              		.loc 1 170 3 is_stmt 1 view .LVU43
 170:Core/Src/main.c ****   RCC_OscInitStruct.HSEPredivValue = RCC_HSE_PREDIV_DIV1;
 225              		.loc 1 170 30 is_stmt 0 view .LVU44
 226 001e 4FF48033 		mov	r3, #65536
 227 0022 0793     		str	r3, [sp, #28]
 171:Core/Src/main.c ****   RCC_OscInitStruct.HSIState = RCC_HSI_ON;
 228              		.loc 1 171 3 is_stmt 1 view .LVU45
 172:Core/Src/main.c ****   RCC_OscInitStruct.PLL.PLLState = RCC_PLL_ON;
 229              		.loc 1 172 3 view .LVU46
 172:Core/Src/main.c ****   RCC_OscInitStruct.PLL.PLLState = RCC_PLL_ON;
 230              		.loc 1 172 30 is_stmt 0 view .LVU47
 231 0024 0A92     		str	r2, [sp, #40]
 173:Core/Src/main.c ****   RCC_OscInitStruct.PLL.PLLSource = RCC_PLLSOURCE_HSE;
 232              		.loc 1 173 3 is_stmt 1 view .LVU48
 173:Core/Src/main.c ****   RCC_OscInitStruct.PLL.PLLSource = RCC_PLLSOURCE_HSE;
 233              		.loc 1 173 34 is_stmt 0 view .LVU49
 234 0026 0222     		movs	r2, #2
 235 0028 0D92     		str	r2, [sp, #52]
 174:Core/Src/main.c ****   RCC_OscInitStruct.PLL.PLLMUL = RCC_PLL_MUL9;
 236              		.loc 1 174 3 is_stmt 1 view .LVU50
 174:Core/Src/main.c ****   RCC_OscInitStruct.PLL.PLLMUL = RCC_PLL_MUL9;
 237              		.loc 1 174 35 is_stmt 0 view .LVU51
 238 002a 0E93     		str	r3, [sp, #56]
 175:Core/Src/main.c ****   if (HAL_RCC_OscConfig(&RCC_OscInitStruct) != HAL_OK)
 239              		.loc 1 175 3 is_stmt 1 view .LVU52
 175:Core/Src/main.c ****   if (HAL_RCC_OscConfig(&RCC_OscInitStruct) != HAL_OK)
 240              		.loc 1 175 32 is_stmt 0 view .LVU53
 241 002c 4FF4E013 		mov	r3, #1835008
 242 0030 0F93     		str	r3, [sp, #60]
 176:Core/Src/main.c ****   {
 243              		.loc 1 176 3 is_stmt 1 view .LVU54
 176:Core/Src/main.c ****   {
 244              		.loc 1 176 7 is_stmt 0 view .LVU55
 245 0032 06A8     		add	r0, sp, #24
 246 0034 FFF7FEFF 		bl	HAL_RCC_OscConfig
ARM GAS  /tmp/ccxPAqpq.s 			page 12


 247              	.LVL21:
 176:Core/Src/main.c ****   {
 248              		.loc 1 176 6 discriminator 1 view .LVU56
 249 0038 80B9     		cbnz	r0, .L11
 183:Core/Src/main.c ****                               |RCC_CLOCKTYPE_PCLK1|RCC_CLOCKTYPE_PCLK2;
 250              		.loc 1 183 3 is_stmt 1 view .LVU57
 183:Core/Src/main.c ****                               |RCC_CLOCKTYPE_PCLK1|RCC_CLOCKTYPE_PCLK2;
 251              		.loc 1 183 31 is_stmt 0 view .LVU58
 252 003a 0F23     		movs	r3, #15
 253 003c 0193     		str	r3, [sp, #4]
 185:Core/Src/main.c ****   RCC_ClkInitStruct.AHBCLKDivider = RCC_SYSCLK_DIV1;
 254              		.loc 1 185 3 is_stmt 1 view .LVU59
 185:Core/Src/main.c ****   RCC_ClkInitStruct.AHBCLKDivider = RCC_SYSCLK_DIV1;
 255              		.loc 1 185 34 is_stmt 0 view .LVU60
 256 003e 0221     		movs	r1, #2
 257 0040 0291     		str	r1, [sp, #8]
 186:Core/Src/main.c ****   RCC_ClkInitStruct.APB1CLKDivider = RCC_HCLK_DIV2;
 258              		.loc 1 186 3 is_stmt 1 view .LVU61
 186:Core/Src/main.c ****   RCC_ClkInitStruct.APB1CLKDivider = RCC_HCLK_DIV2;
 259              		.loc 1 186 35 is_stmt 0 view .LVU62
 260 0042 0023     		movs	r3, #0
 261 0044 0393     		str	r3, [sp, #12]
 187:Core/Src/main.c ****   RCC_ClkInitStruct.APB2CLKDivider = RCC_HCLK_DIV1;
 262              		.loc 1 187 3 is_stmt 1 view .LVU63
 187:Core/Src/main.c ****   RCC_ClkInitStruct.APB2CLKDivider = RCC_HCLK_DIV1;
 263              		.loc 1 187 36 is_stmt 0 view .LVU64
 264 0046 4FF48062 		mov	r2, #1024
 265 004a 0492     		str	r2, [sp, #16]
 188:Core/Src/main.c **** 
 266              		.loc 1 188 3 is_stmt 1 view .LVU65
 188:Core/Src/main.c **** 
 267              		.loc 1 188 36 is_stmt 0 view .LVU66
 268 004c 0593     		str	r3, [sp, #20]
 190:Core/Src/main.c ****   {
 269              		.loc 1 190 3 is_stmt 1 view .LVU67
 190:Core/Src/main.c ****   {
 270              		.loc 1 190 7 is_stmt 0 view .LVU68
 271 004e 01A8     		add	r0, sp, #4
 272 0050 FFF7FEFF 		bl	HAL_RCC_ClockConfig
 273              	.LVL22:
 190:Core/Src/main.c ****   {
 274              		.loc 1 190 6 discriminator 1 view .LVU69
 275 0054 20B9     		cbnz	r0, .L12
 194:Core/Src/main.c **** 
 276              		.loc 1 194 1 view .LVU70
 277 0056 11B0     		add	sp, sp, #68
 278              	.LCFI3:
 279              		.cfi_remember_state
 280              		.cfi_def_cfa_offset 4
 281              		@ sp needed
 282 0058 5DF804FB 		ldr	pc, [sp], #4
 283              	.L11:
 284              	.LCFI4:
 285              		.cfi_restore_state
 178:Core/Src/main.c ****   }
 286              		.loc 1 178 5 is_stmt 1 view .LVU71
 287 005c FFF7FEFF 		bl	Error_Handler
ARM GAS  /tmp/ccxPAqpq.s 			page 13


 288              	.LVL23:
 289              	.L12:
 192:Core/Src/main.c ****   }
 290              		.loc 1 192 5 view .LVU72
 291 0060 FFF7FEFF 		bl	Error_Handler
 292              	.LVL24:
 293              		.cfi_endproc
 294              	.LFE69:
 296              		.section	.rodata.main.str1.4,"aMS",%progbits,1
 297              		.align	2
 298              	.LC0:
 299 0000 57484F5F 		.ascii	"WHO_AM_I = 0x%02X\015\012\000"
 299      414D5F49 
 299      203D2030 
 299      78253032 
 299      580D0A00 
 300              		.global	__aeabi_fmul
 301              		.global	__aeabi_f2iz
 302              		.align	2
 303              	.LC1:
 304 0014 41583A25 		.ascii	"AX:%d AY:%d AZ:%d GX:%d GY:%d GZ:%d theta : %f thet"
 304      64204159 
 304      3A256420 
 304      415A3A25 
 304      64204758 
 305 0047 61646F74 		.ascii	"adot: %f phi : %f phi_dot : %f\015\012\000"
 305      3A202566 
 305      20706869 
 305      203A2025 
 305      66207068 
 306              		.section	.text.main,"ax",%progbits
 307              		.align	1
 308              		.global	main
 309              		.syntax unified
 310              		.thumb
 311              		.thumb_func
 313              	main:
 314              	.LFB68:
  79:Core/Src/main.c **** 
 315              		.loc 1 79 1 view -0
 316              		.cfi_startproc
 317              		@ args = 0, pretend = 0, frame = 552
 318              		@ frame_needed = 0, uses_anonymous_args = 0
 319 0000 2DE9F04F 		push	{r4, r5, r6, r7, r8, r9, r10, fp, lr}
 320              	.LCFI5:
 321              		.cfi_def_cfa_offset 36
 322              		.cfi_offset 4, -36
 323              		.cfi_offset 5, -32
 324              		.cfi_offset 6, -28
 325              		.cfi_offset 7, -24
 326              		.cfi_offset 8, -20
 327              		.cfi_offset 9, -16
 328              		.cfi_offset 10, -12
 329              		.cfi_offset 11, -8
 330              		.cfi_offset 14, -4
 331 0004 ADF5197D 		sub	sp, sp, #612
 332              	.LCFI6:
ARM GAS  /tmp/ccxPAqpq.s 			page 14


 333              		.cfi_def_cfa_offset 648
  88:Core/Src/main.c **** 
 334              		.loc 1 88 3 view .LVU74
 335 0008 FFF7FEFF 		bl	HAL_Init
 336              	.LVL25:
  95:Core/Src/main.c **** 
 337              		.loc 1 95 3 view .LVU75
 338 000c FFF7FEFF 		bl	SystemClock_Config
 339              	.LVL26:
 102:Core/Src/main.c ****   MX_DMA_Init();
 340              		.loc 1 102 3 view .LVU76
 341 0010 FFF7FEFF 		bl	MX_GPIO_Init
 342              	.LVL27:
 103:Core/Src/main.c ****   MX_USART2_UART_Init();
 343              		.loc 1 103 3 view .LVU77
 344 0014 FFF7FEFF 		bl	MX_DMA_Init
 345              	.LVL28:
 104:Core/Src/main.c ****   MX_USART1_UART_Init();
 346              		.loc 1 104 3 view .LVU78
 347 0018 FFF7FEFF 		bl	MX_USART2_UART_Init
 348              	.LVL29:
 105:Core/Src/main.c ****   MX_TIM4_Init();
 349              		.loc 1 105 3 view .LVU79
 350 001c FFF7FEFF 		bl	MX_USART1_UART_Init
 351              	.LVL30:
 106:Core/Src/main.c ****   MX_TIM1_Init();
 352              		.loc 1 106 3 view .LVU80
 353 0020 FFF7FEFF 		bl	MX_TIM4_Init
 354              	.LVL31:
 107:Core/Src/main.c ****   /* USER CODE BEGIN 2 */
 355              		.loc 1 107 3 view .LVU81
 356 0024 FFF7FEFF 		bl	MX_TIM1_Init
 357              	.LVL32:
 109:Core/Src/main.c ****   MPU6050_Init();
 358              		.loc 1 109 3 view .LVU82
 359 0028 3C21     		movs	r1, #60
 360 002a 6B48     		ldr	r0, .L16+16
 361 002c FFF7FEFF 		bl	HAL_TIM_Encoder_Start
 362              	.LVL33:
 110:Core/Src/main.c ****   HAL_TIM_PWM_Start(&htim1, TIM_CHANNEL_ALL);
 363              		.loc 1 110 3 view .LVU83
 364 0030 FFF7FEFF 		bl	MPU6050_Init
 365              	.LVL34:
 111:Core/Src/main.c ****   /* USER CODE END 2 */
 366              		.loc 1 111 3 view .LVU84
 367 0034 3C21     		movs	r1, #60
 368 0036 6948     		ldr	r0, .L16+20
 369 0038 FFF7FEFF 		bl	HAL_TIM_PWM_Start
 370              	.LVL35:
 117:Core/Src/main.c ****   float accel[3], gyro[3]; 
 371              		.loc 1 117 3 view .LVU85
 118:Core/Src/main.c ****   motor_duty = 0.5;
 372              		.loc 1 118 3 view .LVU86
 119:Core/Src/main.c **** 
 373              		.loc 1 119 3 view .LVU87
 119:Core/Src/main.c **** 
 374              		.loc 1 119 14 is_stmt 0 view .LVU88
ARM GAS  /tmp/ccxPAqpq.s 			page 15


 375 003c 684B     		ldr	r3, .L16+24
 376 003e 0022     		movs	r2, #0
 377 0040 1A80     		strh	r2, [r3]	@ movhi
 378              	.L14:
 121:Core/Src/main.c ****   {
 379              		.loc 1 121 3 is_stmt 1 view .LVU89
 380              	.LBB6:
 124:Core/Src/main.c ****       // int len = sprintf(buf, "Received Value: %lu\r\n", encoder); 
 381              		.loc 1 124 7 view .LVU90
 124:Core/Src/main.c ****       // int len = sprintf(buf, "Received Value: %lu\r\n", encoder); 
 382              		.loc 1 124 17 is_stmt 0 view .LVU91
 383 0042 654B     		ldr	r3, .L16+16
 384 0044 1B68     		ldr	r3, [r3]
 385 0046 5B6A     		ldr	r3, [r3, #36]
 124:Core/Src/main.c ****       // int len = sprintf(buf, "Received Value: %lu\r\n", encoder); 
 386              		.loc 1 124 15 view .LVU92
 387 0048 664E     		ldr	r6, .L16+28
 388 004a 3360     		str	r3, [r6]
 128:Core/Src/main.c **** 
 389              		.loc 1 128 7 is_stmt 1 view .LVU93
 390 004c 12A9     		add	r1, sp, #72
 391 004e 15A8     		add	r0, sp, #84
 392 0050 FFF7FEFF 		bl	MPU6050_ReadData
 393              	.LVL36:
 134:Core/Src/main.c ****       sprintf(buffer, "WHO_AM_I = 0x%02X\r\n", id);
 394              		.loc 1 134 7 view .LVU94
 134:Core/Src/main.c ****       sprintf(buffer, "WHO_AM_I = 0x%02X\r\n", id);
 395              		.loc 1 134 20 is_stmt 0 view .LVU95
 396 0054 7520     		movs	r0, #117
 397 0056 FFF7FEFF 		bl	MPU6050_ReadByte
 398              	.LVL37:
 399 005a 0246     		mov	r2, r0
 400              	.LVL38:
 135:Core/Src/main.c ****       HAL_UART_Transmit(&huart1, (uint8_t*)buffer, strlen(buffer), HAL_MAX_DELAY);
 401              		.loc 1 135 7 is_stmt 1 view .LVU96
 402 005c 6249     		ldr	r1, .L16+32
 403 005e 18A8     		add	r0, sp, #96
 404 0060 FFF7FEFF 		bl	sprintf
 405              	.LVL39:
 136:Core/Src/main.c ****       float gx_rad = gyro[0] * (M_PI / 180.0f);
 406              		.loc 1 136 7 view .LVU97
 136:Core/Src/main.c ****       float gx_rad = gyro[0] * (M_PI / 180.0f);
 407              		.loc 1 136 52 is_stmt 0 view .LVU98
 408 0064 18A8     		add	r0, sp, #96
 409 0066 FFF7FEFF 		bl	strlen
 410              	.LVL40:
 136:Core/Src/main.c ****       float gx_rad = gyro[0] * (M_PI / 180.0f);
 411              		.loc 1 136 7 discriminator 1 view .LVU99
 412 006a DFF880B1 		ldr	fp, .L16+36
 413 006e 4FF0FF33 		mov	r3, #-1
 414 0072 82B2     		uxth	r2, r0
 415 0074 18A9     		add	r1, sp, #96
 416 0076 5846     		mov	r0, fp
 417 0078 FFF7FEFF 		bl	HAL_UART_Transmit
 418              	.LVL41:
 137:Core/Src/main.c ****       float theta = atan2(accel[1],accel[2]) * 180.0f / M_PI ;
 419              		.loc 1 137 7 is_stmt 1 view .LVU100
ARM GAS  /tmp/ccxPAqpq.s 			page 16


 137:Core/Src/main.c ****       float theta = atan2(accel[1],accel[2]) * 180.0f / M_PI ;
 420              		.loc 1 137 26 is_stmt 0 view .LVU101
 421 007c 1298     		ldr	r0, [sp, #72]	@ float
 422 007e FFF7FEFF 		bl	__aeabi_f2d
 423              	.LVL42:
 137:Core/Src/main.c ****       float theta = atan2(accel[1],accel[2]) * 180.0f / M_PI ;
 424              		.loc 1 137 30 view .LVU102
 425 0082 51A3     		adr	r3, .L16
 426 0084 D3E90023 		ldrd	r2, [r3]
 427 0088 FFF7FEFF 		bl	__aeabi_dmul
 428              	.LVL43:
 137:Core/Src/main.c ****       float theta = atan2(accel[1],accel[2]) * 180.0f / M_PI ;
 429              		.loc 1 137 13 view .LVU103
 430 008c FFF7FEFF 		bl	__aeabi_d2f
 431              	.LVL44:
 432 0090 8046     		mov	r8, r0
 433              	.LVL45:
 138:Core/Src/main.c ****       float phi = encoder * 2.0f * M_PI/ENCODER_CPR;
 434              		.loc 1 138 7 is_stmt 1 view .LVU104
 138:Core/Src/main.c ****       float phi = encoder * 2.0f * M_PI/ENCODER_CPR;
 435              		.loc 1 138 32 is_stmt 0 view .LVU105
 436 0092 169F     		ldr	r7, [sp, #88]	@ float
 138:Core/Src/main.c ****       float phi = encoder * 2.0f * M_PI/ENCODER_CPR;
 437              		.loc 1 138 21 view .LVU106
 438 0094 1798     		ldr	r0, [sp, #92]	@ float
 439              	.LVL46:
 138:Core/Src/main.c ****       float phi = encoder * 2.0f * M_PI/ENCODER_CPR;
 440              		.loc 1 138 21 view .LVU107
 441 0096 FFF7FEFF 		bl	__aeabi_f2d
 442              	.LVL47:
 443 009a 0446     		mov	r4, r0
 444 009c 0D46     		mov	r5, r1
 445 009e 3846     		mov	r0, r7
 446 00a0 FFF7FEFF 		bl	__aeabi_f2d
 447              	.LVL48:
 448 00a4 2246     		mov	r2, r4
 449 00a6 2B46     		mov	r3, r5
 450 00a8 FFF7FEFF 		bl	atan2
 451              	.LVL49:
 138:Core/Src/main.c ****       float phi = encoder * 2.0f * M_PI/ENCODER_CPR;
 452              		.loc 1 138 46 discriminator 1 view .LVU108
 453 00ac 0022     		movs	r2, #0
 454 00ae 504B     		ldr	r3, .L16+40
 455 00b0 FFF7FEFF 		bl	__aeabi_dmul
 456              	.LVL50:
 138:Core/Src/main.c ****       float phi = encoder * 2.0f * M_PI/ENCODER_CPR;
 457              		.loc 1 138 55 discriminator 1 view .LVU109
 458 00b4 46A3     		adr	r3, .L16+8
 459 00b6 D3E90023 		ldrd	r2, [r3]
 460 00ba FFF7FEFF 		bl	__aeabi_ddiv
 461              	.LVL51:
 138:Core/Src/main.c ****       float phi = encoder * 2.0f * M_PI/ENCODER_CPR;
 462              		.loc 1 138 13 discriminator 1 view .LVU110
 463 00be FFF7FEFF 		bl	__aeabi_d2f
 464              	.LVL52:
 465 00c2 0746     		mov	r7, r0
 466              	.LVL53:
ARM GAS  /tmp/ccxPAqpq.s 			page 17


 139:Core/Src/main.c ****       phi_dot = get_motor_speed();
 467              		.loc 1 139 7 is_stmt 1 view .LVU111
 139:Core/Src/main.c ****       phi_dot = get_motor_speed();
 468              		.loc 1 139 27 is_stmt 0 view .LVU112
 469 00c4 3068     		ldr	r0, [r6]
 470              	.LVL54:
 139:Core/Src/main.c ****       phi_dot = get_motor_speed();
 471              		.loc 1 139 27 view .LVU113
 472 00c6 FFF7FEFF 		bl	__aeabi_ui2f
 473              	.LVL55:
 474 00ca 0146     		mov	r1, r0
 475 00cc FFF7FEFF 		bl	__aeabi_fadd
 476              	.LVL56:
 477 00d0 FFF7FEFF 		bl	__aeabi_f2d
 478              	.LVL57:
 139:Core/Src/main.c ****       phi_dot = get_motor_speed();
 479              		.loc 1 139 34 view .LVU114
 480 00d4 3EA3     		adr	r3, .L16+8
 481 00d6 D3E90023 		ldrd	r2, [r3]
 482 00da FFF7FEFF 		bl	__aeabi_dmul
 483              	.LVL58:
 139:Core/Src/main.c ****       phi_dot = get_motor_speed();
 484              		.loc 1 139 40 view .LVU115
 485 00de 0022     		movs	r2, #0
 486 00e0 444B     		ldr	r3, .L16+44
 487 00e2 FFF7FEFF 		bl	__aeabi_ddiv
 488              	.LVL59:
 139:Core/Src/main.c ****       phi_dot = get_motor_speed();
 489              		.loc 1 139 13 view .LVU116
 490 00e6 FFF7FEFF 		bl	__aeabi_d2f
 491              	.LVL60:
 492 00ea 8146     		mov	r9, r0
 493              	.LVL61:
 140:Core/Src/main.c ****       snprintf(buffer, sizeof(buffer),
 494              		.loc 1 140 7 is_stmt 1 view .LVU117
 140:Core/Src/main.c ****       snprintf(buffer, sizeof(buffer),
 495              		.loc 1 140 17 is_stmt 0 view .LVU118
 496 00ec FFF7FEFF 		bl	get_motor_speed
 497              	.LVL62:
 140:Core/Src/main.c ****       snprintf(buffer, sizeof(buffer),
 498              		.loc 1 140 17 view .LVU119
 499 00f0 0446     		mov	r4, r0
 140:Core/Src/main.c ****       snprintf(buffer, sizeof(buffer),
 500              		.loc 1 140 15 discriminator 1 view .LVU120
 501 00f2 414B     		ldr	r3, .L16+48
 502 00f4 1860     		str	r0, [r3]	@ float
 141:Core/Src/main.c ****             "AX:%d AY:%d AZ:%d GX:%d GY:%d GZ:%d theta : %f thetadot: %f phi : %f phi_dot : %f\r\n"
 503              		.loc 1 141 7 is_stmt 1 view .LVU121
 143:Core/Src/main.c ****             (int)(gyro[0]*100), (int)(gyro[1]*100), (int)(gyro[2]*100), theta, gx_rad, phi, phi_dot
 504              		.loc 1 143 27 is_stmt 0 view .LVU122
 505 00f6 4149     		ldr	r1, .L16+52
 506 00f8 1598     		ldr	r0, [sp, #84]	@ float
 507 00fa FFF7FEFF 		bl	__aeabi_fmul
 508              	.LVL63:
 509 00fe 8246     		mov	r10, r0
 143:Core/Src/main.c ****             (int)(gyro[0]*100), (int)(gyro[1]*100), (int)(gyro[2]*100), theta, gx_rad, phi, phi_dot
 510              		.loc 1 143 49 view .LVU123
ARM GAS  /tmp/ccxPAqpq.s 			page 18


 511 0100 3E49     		ldr	r1, .L16+52
 512 0102 1698     		ldr	r0, [sp, #88]	@ float
 513 0104 FFF7FEFF 		bl	__aeabi_fmul
 514              	.LVL64:
 515 0108 0F90     		str	r0, [sp, #60]	@ float
 143:Core/Src/main.c ****             (int)(gyro[0]*100), (int)(gyro[1]*100), (int)(gyro[2]*100), theta, gx_rad, phi, phi_dot
 516              		.loc 1 143 71 view .LVU124
 517 010a 3C49     		ldr	r1, .L16+52
 518 010c 1798     		ldr	r0, [sp, #92]	@ float
 519 010e FFF7FEFF 		bl	__aeabi_fmul
 520              	.LVL65:
 521 0112 1090     		str	r0, [sp, #64]	@ float
 144:Core/Src/main.c ****       HAL_UART_Transmit(&huart1, (uint8_t*)buffer, strlen(buffer), HAL_MAX_DELAY);
 522              		.loc 1 144 26 view .LVU125
 523 0114 3A49     		ldr	r1, .L16+56
 524 0116 1298     		ldr	r0, [sp, #72]	@ float
 525 0118 FFF7FEFF 		bl	__aeabi_fmul
 526              	.LVL66:
 527 011c 1190     		str	r0, [sp, #68]	@ float
 144:Core/Src/main.c ****       HAL_UART_Transmit(&huart1, (uint8_t*)buffer, strlen(buffer), HAL_MAX_DELAY);
 528              		.loc 1 144 46 view .LVU126
 529 011e 3849     		ldr	r1, .L16+56
 530 0120 1398     		ldr	r0, [sp, #76]	@ float
 531 0122 FFF7FEFF 		bl	__aeabi_fmul
 532              	.LVL67:
 533 0126 0546     		mov	r5, r0
 144:Core/Src/main.c ****       HAL_UART_Transmit(&huart1, (uint8_t*)buffer, strlen(buffer), HAL_MAX_DELAY);
 534              		.loc 1 144 66 view .LVU127
 535 0128 3549     		ldr	r1, .L16+56
 536 012a 1498     		ldr	r0, [sp, #80]	@ float
 537 012c FFF7FEFF 		bl	__aeabi_fmul
 538              	.LVL68:
 539 0130 0646     		mov	r6, r0
 141:Core/Src/main.c ****             "AX:%d AY:%d AZ:%d GX:%d GY:%d GZ:%d theta : %f thetadot: %f phi : %f phi_dot : %f\r\n"
 540              		.loc 1 141 7 view .LVU128
 541 0132 5046     		mov	r0, r10
 542 0134 FFF7FEFF 		bl	__aeabi_f2iz
 543              	.LVL69:
 544 0138 8246     		mov	r10, r0
 545 013a 2046     		mov	r0, r4
 546 013c FFF7FEFF 		bl	__aeabi_f2d
 547              	.LVL70:
 548 0140 CDE90C01 		strd	r0, [sp, #48]
 549 0144 4846     		mov	r0, r9
 550 0146 FFF7FEFF 		bl	__aeabi_f2d
 551              	.LVL71:
 552 014a CDE90A01 		strd	r0, [sp, #40]
 553 014e 4046     		mov	r0, r8
 554 0150 FFF7FEFF 		bl	__aeabi_f2d
 555              	.LVL72:
 556 0154 CDE90801 		strd	r0, [sp, #32]
 557 0158 3846     		mov	r0, r7
 558 015a FFF7FEFF 		bl	__aeabi_f2d
 559              	.LVL73:
 560 015e CDE90601 		strd	r0, [sp, #24]
 561 0162 3046     		mov	r0, r6
 562 0164 FFF7FEFF 		bl	__aeabi_f2iz
ARM GAS  /tmp/ccxPAqpq.s 			page 19


 563              	.LVL74:
 564 0168 0490     		str	r0, [sp, #16]
 565 016a 2846     		mov	r0, r5
 566 016c FFF7FEFF 		bl	__aeabi_f2iz
 567              	.LVL75:
 568 0170 0390     		str	r0, [sp, #12]
 569 0172 1198     		ldr	r0, [sp, #68]	@ float
 570 0174 FFF7FEFF 		bl	__aeabi_f2iz
 571              	.LVL76:
 572 0178 0290     		str	r0, [sp, #8]
 573 017a 1098     		ldr	r0, [sp, #64]	@ float
 574 017c FFF7FEFF 		bl	__aeabi_f2iz
 575              	.LVL77:
 576 0180 0190     		str	r0, [sp, #4]
 577 0182 0F98     		ldr	r0, [sp, #60]	@ float
 578 0184 FFF7FEFF 		bl	__aeabi_f2iz
 579              	.LVL78:
 580 0188 0090     		str	r0, [sp]
 581 018a 5346     		mov	r3, r10
 582 018c 1D4A     		ldr	r2, .L16+60
 583 018e 4FF40071 		mov	r1, #512
 584 0192 18A8     		add	r0, sp, #96
 585 0194 FFF7FEFF 		bl	snprintf
 586              	.LVL79:
 145:Core/Src/main.c ****       htim1.Instance->CCR1 = (uint32_t)(motor_duty * htim1.Instance->ARR);     
 587              		.loc 1 145 7 is_stmt 1 view .LVU129
 145:Core/Src/main.c ****       htim1.Instance->CCR1 = (uint32_t)(motor_duty * htim1.Instance->ARR);     
 588              		.loc 1 145 52 is_stmt 0 view .LVU130
 589 0198 18A8     		add	r0, sp, #96
 590 019a FFF7FEFF 		bl	strlen
 591              	.LVL80:
 145:Core/Src/main.c ****       htim1.Instance->CCR1 = (uint32_t)(motor_duty * htim1.Instance->ARR);     
 592              		.loc 1 145 7 discriminator 1 view .LVU131
 593 019e 4FF0FF33 		mov	r3, #-1
 594 01a2 82B2     		uxth	r2, r0
 595 01a4 18A9     		add	r1, sp, #96
 596 01a6 5846     		mov	r0, fp
 597 01a8 FFF7FEFF 		bl	HAL_UART_Transmit
 598              	.LVL81:
 146:Core/Src/main.c ****       HAL_Delay(10);  
 599              		.loc 1 146 7 is_stmt 1 view .LVU132
 146:Core/Src/main.c ****       HAL_Delay(10);  
 600              		.loc 1 146 59 is_stmt 0 view .LVU133
 601 01ac 0B4B     		ldr	r3, .L16+20
 602 01ae 1A68     		ldr	r2, [r3]
 146:Core/Src/main.c ****       HAL_Delay(10);  
 603              		.loc 1 146 68 view .LVU134
 604 01b0 D16A     		ldr	r1, [r2, #44]
 146:Core/Src/main.c ****       HAL_Delay(10);  
 605              		.loc 1 146 30 view .LVU135
 606 01b2 0B4B     		ldr	r3, .L16+24
 607 01b4 1B88     		ldrh	r3, [r3]
 608 01b6 01FB03F3 		mul	r3, r1, r3
 146:Core/Src/main.c ****       HAL_Delay(10);  
 609              		.loc 1 146 28 view .LVU136
 610 01ba 5363     		str	r3, [r2, #52]
 147:Core/Src/main.c ****       // encoder = __HAL_TIM_GET_COUNTER(&htim2);
ARM GAS  /tmp/ccxPAqpq.s 			page 20


 611              		.loc 1 147 7 is_stmt 1 discriminator 1 view .LVU137
 612 01bc 0A20     		movs	r0, #10
 613 01be FFF7FEFF 		bl	HAL_Delay
 614              	.LVL82:
 615              	.LBE6:
 121:Core/Src/main.c ****   {
 616              		.loc 1 121 9 view .LVU138
 617 01c2 3EE7     		b	.L14
 618              	.L17:
 619 01c4 AFF30080 		.align	3
 620              	.L16:
 621 01c8 399D52A2 		.word	-1571644103
 622 01cc 46DF913F 		.word	1066524486
 623 01d0 182D4454 		.word	1413754136
 624 01d4 FB210940 		.word	1074340347
 625 01d8 00000000 		.word	htim4
 626 01dc 00000000 		.word	htim1
 627 01e0 00000000 		.word	motor_duty
 628 01e4 00000000 		.word	encoder
 629 01e8 00000000 		.word	.LC0
 630 01ec 00000000 		.word	huart1
 631 01f0 00806640 		.word	1080459264
 632 01f4 00007940 		.word	1081671680
 633 01f8 00000000 		.word	phi_dot
 634 01fc 00007A44 		.word	1148846080
 635 0200 0000C842 		.word	1120403456
 636 0204 14000000 		.word	.LC1
 637              		.cfi_endproc
 638              	.LFE68:
 640              		.section	.bss.prev_time.0,"aw",%nobits
 641              		.align	2
 644              	prev_time.0:
 645 0000 00000000 		.space	4
 646              		.section	.bss.prev_count.1,"aw",%nobits
 647              		.align	2
 650              	prev_count.1:
 651 0000 00000000 		.space	4
 652              		.global	motor_speed_rpm
 653              		.section	.bss.motor_speed_rpm,"aw",%nobits
 654              		.align	2
 657              	motor_speed_rpm:
 658 0000 00000000 		.space	4
 659              		.global	motor_duty
 660              		.section	.bss.motor_duty,"aw",%nobits
 661              		.align	1
 664              	motor_duty:
 665 0000 0000     		.space	2
 666              		.global	phi_dot
 667              		.section	.bss.phi_dot,"aw",%nobits
 668              		.align	2
 671              	phi_dot:
 672 0000 00000000 		.space	4
 673              		.global	encoder
 674              		.section	.bss.encoder,"aw",%nobits
 675              		.align	2
 678              	encoder:
 679 0000 00000000 		.space	4
ARM GAS  /tmp/ccxPAqpq.s 			page 21


 680              		.text
 681              	.Letext0:
 682              		.file 3 "/usr/lib/gcc/arm-none-eabi/13.2.1/include/stdint.h"
 683              		.file 4 "Drivers/CMSIS/Device/ST/STM32F1xx/Include/stm32f103xb.h"
 684              		.file 5 "/usr/lib/gcc/arm-none-eabi/13.2.1/include/stddef.h"
 685              		.file 6 "Drivers/STM32F1xx_HAL_Driver/Inc/stm32f1xx_hal_def.h"
 686              		.file 7 "Drivers/STM32F1xx_HAL_Driver/Inc/stm32f1xx_hal_rcc.h"
 687              		.file 8 "Drivers/STM32F1xx_HAL_Driver/Inc/stm32f1xx_hal_rcc_ex.h"
 688              		.file 9 "Drivers/STM32F1xx_HAL_Driver/Inc/stm32f1xx_hal_dma.h"
 689              		.file 10 "Drivers/STM32F1xx_HAL_Driver/Inc/stm32f1xx_hal_tim.h"
 690              		.file 11 "Drivers/STM32F1xx_HAL_Driver/Inc/stm32f1xx_hal_uart.h"
 691              		.file 12 "Core/Inc/tim.h"
 692              		.file 13 "Core/Inc/usart.h"
 693              		.file 14 "/usr/include/newlib/stdio.h"
 694              		.file 15 "/usr/include/newlib/math.h"
 695              		.file 16 "/usr/include/newlib/string.h"
 696              		.file 17 "Core/Inc/mpu_6050.h"
 697              		.file 18 "Drivers/STM32F1xx_HAL_Driver/Inc/stm32f1xx_hal.h"
 698              		.file 19 "Core/Inc/dma.h"
 699              		.file 20 "Core/Inc/gpio.h"
 700              		.file 21 "<built-in>"
ARM GAS  /tmp/ccxPAqpq.s 			page 22

